
========================================================================

** ELF Header Information

    File Name: ..\..\..\..\ti\TivaWare_C_Series-2.1.0.12573\examples\boards\ek-tm4c123gxl-boostxl-senshub\compdcm_mpu9150\rvmdk\compdcm_mpu9150.axf

    Machine class: ELFCLASS32 (32-bit)
    Data encoding: ELFDATA2LSB (Little endian)
    Header version: EV_CURRENT (Current version)
    Operating System ABI: none
    ABI Version: 0
    File Type: ET_EXEC (Executable) (2)
    Machine: EM_ARM (ARM)

    Image Entry point: 0x0000026d
    Flags: EF_ARM_HASENTRY (0x05000002)

    ARM ELF revision: 5 (ABI version 2)

    Built with
    ARM C/C++ Compiler, 5.03 [Build 76]
    ARM Assembler, 5.03 [Build 76]
    ARM Linker, 5.03 [Build 76] 
    Component: ARM Compiler 5.05 update 1 (build 106) Tool: armasm [4d0efa]
    Component: ARM Compiler 5.05 update 1 (build 106) Tool: armlink [4d0efa]

    Header size: 52 bytes (0x34)
    Program header entry size: 32 bytes (0x20)
    Section header entry size: 40 bytes (0x28)

    Program header entries: 1
    Section header entries: 16

    Program header offset: 229960 (0x00038248)
    Section header offset: 229992 (0x00038268)

    Section header string table index: 15

========================================================================

** Program header #0 (PT_LOAD) [PF_X + PF_W + PF_R + PF_ARM_ENTRY]
    Size : 27684 bytes (23388 bytes in file)
    Virtual address: 0x00000000 (Alignment 1024)


========================================================================

** Section #1 'ER_IROM' (SHT_PROGBITS) [SHF_ALLOC + SHF_EXECINSTR]
    Size   : 23348 bytes (alignment 8)
    Address: 0x00000000

    $d
    RESET
    __Vectors
        0x00000000:    200010f0    ...     DCD    536875248
        0x00000004:    0000026d    m...    DCD    621
        0x00000008:    00000281    ....    DCD    641
        0x0000000c:    00000283    ....    DCD    643
        0x00000010:    00000285    ....    DCD    645
        0x00000014:    00000285    ....    DCD    645
        0x00000018:    00000285    ....    DCD    645
        0x0000001c:    00000000    ....    DCD    0
        0x00000020:    00000000    ....    DCD    0
        0x00000024:    00000000    ....    DCD    0
        0x00000028:    00000000    ....    DCD    0
        0x0000002c:    00000285    ....    DCD    645
        0x00000030:    00000285    ....    DCD    645
        0x00000034:    00000000    ....    DCD    0
        0x00000038:    00000285    ....    DCD    645
        0x0000003c:    00000285    ....    DCD    645
        0x00000040:    00000285    ....    DCD    645
        0x00000044:    00002395    .#..    DCD    9109
        0x00000048:    00000285    ....    DCD    645
        0x0000004c:    00000285    ....    DCD    645
        0x00000050:    00000285    ....    DCD    645
        0x00000054:    00004115    .A..    DCD    16661
        0x00000058:    00000285    ....    DCD    645
        0x0000005c:    00000285    ....    DCD    645
        0x00000060:    00000285    ....    DCD    645
        0x00000064:    00000285    ....    DCD    645
        0x00000068:    00000285    ....    DCD    645
        0x0000006c:    00000285    ....    DCD    645
        0x00000070:    00000285    ....    DCD    645
        0x00000074:    00000285    ....    DCD    645
        0x00000078:    00000285    ....    DCD    645
        0x0000007c:    00000285    ....    DCD    645
        0x00000080:    00000285    ....    DCD    645
        0x00000084:    00000285    ....    DCD    645
        0x00000088:    00000285    ....    DCD    645
        0x0000008c:    00000285    ....    DCD    645
        0x00000090:    00000285    ....    DCD    645
        0x00000094:    00000285    ....    DCD    645
        0x00000098:    00000285    ....    DCD    645
        0x0000009c:    00000285    ....    DCD    645
        0x000000a0:    00000285    ....    DCD    645
        0x000000a4:    00000285    ....    DCD    645
        0x000000a8:    00000285    ....    DCD    645
        0x000000ac:    00000285    ....    DCD    645
        0x000000b0:    00000285    ....    DCD    645
        0x000000b4:    00000285    ....    DCD    645
        0x000000b8:    00000285    ....    DCD    645
        0x000000bc:    00000285    ....    DCD    645
        0x000000c0:    00000285    ....    DCD    645
        0x000000c4:    00000285    ....    DCD    645
        0x000000c8:    00000285    ....    DCD    645
        0x000000cc:    00000285    ....    DCD    645
        0x000000d0:    00000285    ....    DCD    645
        0x000000d4:    00000285    ....    DCD    645
        0x000000d8:    00000285    ....    DCD    645
        0x000000dc:    00000285    ....    DCD    645
        0x000000e0:    00000285    ....    DCD    645
        0x000000e4:    00000000    ....    DCD    0
        0x000000e8:    00000000    ....    DCD    0
        0x000000ec:    00000285    ....    DCD    645
        0x000000f0:    00000285    ....    DCD    645
        0x000000f4:    00000285    ....    DCD    645
        0x000000f8:    00000285    ....    DCD    645
        0x000000fc:    00000285    ....    DCD    645
        0x00000100:    00000285    ....    DCD    645
        0x00000104:    00000285    ....    DCD    645
        0x00000108:    00000285    ....    DCD    645
        0x0000010c:    00000285    ....    DCD    645
        0x00000110:    00000000    ....    DCD    0
        0x00000114:    00000000    ....    DCD    0
        0x00000118:    00000285    ....    DCD    645
        0x0000011c:    00000285    ....    DCD    645
        0x00000120:    00000285    ....    DCD    645
        0x00000124:    00000285    ....    DCD    645
        0x00000128:    00000285    ....    DCD    645
        0x0000012c:    00000285    ....    DCD    645
        0x00000130:    00000285    ....    DCD    645
        0x00000134:    00000285    ....    DCD    645
        0x00000138:    00000285    ....    DCD    645
        0x0000013c:    00000285    ....    DCD    645
        0x00000140:    00000000    ....    DCD    0
        0x00000144:    00000000    ....    DCD    0
        0x00000148:    00000000    ....    DCD    0
        0x0000014c:    00000000    ....    DCD    0
        0x00000150:    00000285    ....    DCD    645
        0x00000154:    00002b31    1+..    DCD    11057
        0x00000158:    00000285    ....    DCD    645
        0x0000015c:    00000285    ....    DCD    645
        0x00000160:    00000000    ....    DCD    0
        0x00000164:    00000000    ....    DCD    0
        0x00000168:    00000000    ....    DCD    0
        0x0000016c:    00000000    ....    DCD    0
        0x00000170:    00000000    ....    DCD    0
        0x00000174:    00000000    ....    DCD    0
        0x00000178:    00000000    ....    DCD    0
        0x0000017c:    00000000    ....    DCD    0
        0x00000180:    00000000    ....    DCD    0
        0x00000184:    00000000    ....    DCD    0
        0x00000188:    00000000    ....    DCD    0
        0x0000018c:    00000000    ....    DCD    0
        0x00000190:    00000000    ....    DCD    0
        0x00000194:    00000000    ....    DCD    0
        0x00000198:    00000000    ....    DCD    0
        0x0000019c:    00000000    ....    DCD    0
        0x000001a0:    00000000    ....    DCD    0
        0x000001a4:    00000000    ....    DCD    0
        0x000001a8:    00000000    ....    DCD    0
        0x000001ac:    00000000    ....    DCD    0
        0x000001b0:    00000285    ....    DCD    645
        0x000001b4:    00000285    ....    DCD    645
        0x000001b8:    00000285    ....    DCD    645
        0x000001bc:    00000285    ....    DCD    645
        0x000001c0:    00000285    ....    DCD    645
        0x000001c4:    00000285    ....    DCD    645
        0x000001c8:    00000285    ....    DCD    645
        0x000001cc:    00000285    ....    DCD    645
        0x000001d0:    00000285    ....    DCD    645
        0x000001d4:    00000285    ....    DCD    645
        0x000001d8:    00000285    ....    DCD    645
        0x000001dc:    00000285    ....    DCD    645
        0x000001e0:    00000285    ....    DCD    645
        0x000001e4:    00002d01    .-..    DCD    11521
        0x000001e8:    00000285    ....    DCD    645
        0x000001ec:    00000000    ....    DCD    0
        0x000001f0:    00000000    ....    DCD    0
        0x000001f4:    00000285    ....    DCD    645
        0x000001f8:    00000285    ....    DCD    645
        0x000001fc:    00000285    ....    DCD    645
        0x00000200:    00000285    ....    DCD    645
        0x00000204:    00000285    ....    DCD    645
        0x00000208:    00000000    ....    DCD    0
        0x0000020c:    00000000    ....    DCD    0
        0x00000210:    00000285    ....    DCD    645
        0x00000214:    00000285    ....    DCD    645
        0x00000218:    00000285    ....    DCD    645
        0x0000021c:    00000285    ....    DCD    645
        0x00000220:    00000285    ....    DCD    645
        0x00000224:    00000285    ....    DCD    645
        0x00000228:    00000285    ....    DCD    645
        0x0000022c:    00000285    ....    DCD    645
        0x00000230:    00000285    ....    DCD    645
        0x00000234:    00000285    ....    DCD    645
        0x00000238:    00000285    ....    DCD    645
        0x0000023c:    00000285    ....    DCD    645
        0x00000240:    00000285    ....    DCD    645
        0x00000244:    00000285    ....    DCD    645
        0x00000248:    00000285    ....    DCD    645
        0x0000024c:    00000285    ....    DCD    645
        0x00000250:    00000285    ....    DCD    645
        0x00000254:    00000285    ....    DCD    645
        0x00000258:    00000285    ....    DCD    645
        0x0000025c:    00000285    ....    DCD    645
        0x00000260:    00000285    ....    DCD    645
        0x00000264:    00000285    ....    DCD    645
        0x00000268:    00000285    ....    DCD    645
    $t
    $v0
    Reset_Handler
        0x0000026c:    f64e5088    N..P    MOV      r0,#0xed88
        0x00000270:    f2ce0000    ....    MOVT     r0,#0xe000
        0x00000274:    6801        .h      LDR      r1,[r0,#0]
        0x00000276:    f4410170    A.p.    ORR      r1,r1,#0xf00000
        0x0000027a:    6001        .`      STR      r1,[r0,#0]
        0x0000027c:    f000b804    ....    B.W      __main ; 0x288
    NmiSR
        0x00000280:    e7fe        ..      B        NmiSR ; 0x280
    FaultISR
        0x00000282:    e7fe        ..      B        FaultISR ; 0x282
    IntDefaultHandler
        0x00000284:    e7fe        ..      B        IntDefaultHandler ; 0x284
    $d
        0x00000286:    0000        ..      DCW    0
    $t
    .ARM.Collect$$$$00000000
    .ARM.Collect$$$$00000001
    __main
    _main_stk
        0x00000288:    f8dfd00c    ....    LDR      sp,__lit__00000000 ; [0x298] = 0x200010f0
    .ARM.Collect$$$$00000004
    _main_scatterload
        0x0000028c:    f000fa40    ..@.    BL       __scatterload ; 0x710
    .ARM.Collect$$$$00000008
    .ARM.Collect$$$$0000000A
    .ARM.Collect$$$$0000000B
    __main_after_scatterload
    _main_clock
    _main_cpp_init
    _main_init
        0x00000290:    4800        .H      LDR      r0,[pc,#0] ; [0x294] = 0x4ba1
        0x00000292:    4700        .G      BX       r0
    $d
        0x00000294:    00004ba1    .K..    DCD    19361
    .ARM.Collect$$$$00002712
    __lit__00000000
    .ARM.Collect$$$$0000000D
    .ARM.Collect$$$$0000000F
    __rt_final_cpp
    __rt_final_exit
        0x00000298:    200010f0    ...     DCD    536875248
    $t
    .emb_text
    $v0
    SysCtlDelay
        0x0000029c:    3801        .8      SUBS     r0,#1
        0x0000029e:    d1fd        ..      BNE      SysCtlDelay ; 0x29c
        0x000002a0:    4770        pG      BX       lr
        0x000002a2:    0000        ..      MOVS     r0,r0
    .emb_text
    $v0
    CPUcpsid
        0x000002a4:    f3ef8010    ....    MRS      r0,PRIMASK
        0x000002a8:    b672        r.      CPSID    i
        0x000002aa:    4770        pG      BX       lr
    CPUprimask
        0x000002ac:    f3ef8010    ....    MRS      r0,PRIMASK
        0x000002b0:    4770        pG      BX       lr
    CPUcpsie
        0x000002b2:    f3ef8010    ....    MRS      r0,PRIMASK
        0x000002b6:    b662        b.      CPSIE    i
        0x000002b8:    4770        pG      BX       lr
    CPUwfi
        0x000002ba:    bf30        0.      WFI      
        0x000002bc:    4770        pG      BX       lr
    CPUbasepriSet
        0x000002be:    f3808811    ....    MSR      BASEPRI,r0
        0x000002c2:    4770        pG      BX       lr
    CPUbasepriGet
        0x000002c4:    f3ef8011    ....    MRS      r0,BASEPRI
        0x000002c8:    4770        pG      BX       lr
        0x000002ca:    0000        ..      MOVS     r0,r0
    .text
    .text
    strcmp
        0x000002cc:    b510        ..      PUSH     {r4,lr}
        0x000002ce:    2200        ."      MOVS     r2,#0
        0x000002d0:    e000        ..      B        0x2d4 ; strcmp + 8
        0x000002d2:    1c52        R.      ADDS     r2,r2,#1
        0x000002d4:    5c83        .\      LDRB     r3,[r0,r2]
        0x000002d6:    5c8c        .\      LDRB     r4,[r1,r2]
        0x000002d8:    42a3        .B      CMP      r3,r4
        0x000002da:    d101        ..      BNE      0x2e0 ; strcmp + 20
        0x000002dc:    2b00        .+      CMP      r3,#0
        0x000002de:    d1f8        ..      BNE      0x2d2 ; strcmp + 6
        0x000002e0:    b2d8        ..      UXTB     r0,r3
        0x000002e2:    b2e1        ..      UXTB     r1,r4
        0x000002e4:    1a40        @.      SUBS     r0,r0,r1
        0x000002e6:    bd10        ..      POP      {r4,pc}
    .text
    __aeabi_dadd
        0x000002e8:    e92d4ffe    -..O    PUSH     {r1-r11,lr}
        0x000002ec:    4680        .F      MOV      r8,r0
        0x000002ee:    ea810003    ....    EOR      r0,r1,r3
        0x000002f2:    0fc0        ..      LSRS     r0,r0,#31
        0x000002f4:    460c        .F      MOV      r4,r1
        0x000002f6:    9000        ..      STR      r0,[sp,#0]
        0x000002f8:    f0214100    !..A    BIC      r1,r1,#0x80000000
        0x000002fc:    f0234500    #..E    BIC      r5,r3,#0x80000000
        0x00000300:    ebb80002    ....    SUBS     r0,r8,r2
        0x00000304:    41a9        .A      SBCS     r1,r1,r5
        0x00000306:    d205        ..      BCS      0x314 ; __aeabi_dadd + 44
        0x00000308:    4640        @F      MOV      r0,r8
        0x0000030a:    4621        !F      MOV      r1,r4
        0x0000030c:    4690        .F      MOV      r8,r2
        0x0000030e:    461c        .F      MOV      r4,r3
        0x00000310:    460b        .F      MOV      r3,r1
        0x00000312:    4602        .F      MOV      r2,r0
        0x00000314:    f0234000    #..@    BIC      r0,r3,#0x80000000
        0x00000318:    4310        .C      ORRS     r0,r0,r2
        0x0000031a:    d047        G.      BEQ      0x3ac ; __aeabi_dadd + 196
        0x0000031c:    0d27        '.      LSRS     r7,r4,#20
        0x0000031e:    f3c7000a    ....    UBFX     r0,r7,#0,#11
        0x00000322:    f3c3510a    ...Q    UBFX     r1,r3,#20,#11
        0x00000326:    9002        ..      STR      r0,[sp,#8]
        0x00000328:    1a40        @.      SUBS     r0,r0,r1
        0x0000032a:    9001        ..      STR      r0,[sp,#4]
        0x0000032c:    2840        @(      CMP      r0,#0x40
        0x0000032e:    da6b        k.      BGE      0x408 ; __aeabi_dadd + 288
        0x00000330:    f3c30013    ....    UBFX     r0,r3,#0,#20
        0x00000334:    f4401b80    @...    ORR      r11,r0,#0x100000
        0x00000338:    9800        ..      LDR      r0,[sp,#0]
        0x0000033a:    4692        .F      MOV      r10,r2
        0x0000033c:    b120         .      CBZ      r0,0x348 ; __aeabi_dadd + 96
        0x0000033e:    2300        .#      MOVS     r3,#0
        0x00000340:    ebd20a03    ....    RSBS     r10,r2,r3
        0x00000344:    eb630b0b    c...    SBC      r11,r3,r11
        0x00000348:    9801        ..      LDR      r0,[sp,#4]
        0x0000034a:    4659        YF      MOV      r1,r11
        0x0000034c:    f1c00240    ..@.    RSB      r2,r0,#0x40
        0x00000350:    4650        PF      MOV      r0,r10
        0x00000352:    f000f927    ..'.    BL       __aeabi_llsl ; 0x5a4
        0x00000356:    4606        .F      MOV      r6,r0
        0x00000358:    460d        .F      MOV      r5,r1
        0x0000035a:    4650        PF      MOV      r0,r10
        0x0000035c:    4659        YF      MOV      r1,r11
        0x0000035e:    9a01        ..      LDR      r2,[sp,#4]
        0x00000360:    f000f92f    ../.    BL       __aeabi_lasr ; 0x5c2
        0x00000364:    eb100008    ....    ADDS     r0,r0,r8
        0x00000368:    4161        aA      ADCS     r1,r1,r4
        0x0000036a:    2400        .$      MOVS     r4,#0
        0x0000036c:    ea875211    ...R    EOR      r2,r7,r1,LSR #20
        0x00000370:    ea8473e7    ...s    EOR      r3,r4,r7,ASR #31
        0x00000374:    431a        .C      ORRS     r2,r2,r3
        0x00000376:    d040        @.      BEQ      0x3fa ; __aeabi_dadd + 274
        0x00000378:    9a00        ..      LDR      r2,[sp,#0]
        0x0000037a:    b362        b.      CBZ      r2,0x3d6 ; __aeabi_dadd + 238
        0x0000037c:    9a01        ..      LDR      r2,[sp,#4]
        0x0000037e:    2a01        .*      CMP      r2,#1
        0x00000380:    ea4f5207    O..R    LSL      r2,r7,#20
        0x00000384:    dc15        ..      BGT      0x3b2 ; __aeabi_dadd + 202
        0x00000386:    1b00        ..      SUBS     r0,r0,r4
        0x00000388:    eb610102    a...    SBC      r1,r1,r2
        0x0000038c:    f04f4200    O..B    MOV      r2,#0x80000000
        0x00000390:    ea025207    ...R    AND      r2,r2,r7,LSL #20
        0x00000394:    e9cd4200    ...B    STRD     r4,r2,[sp,#0]
        0x00000398:    1c00        ..      ADDS     r0,r0,#0
        0x0000039a:    f5411180    A...    ADC      r1,r1,#0x100000
        0x0000039e:    4632        2F      MOV      r2,r6
        0x000003a0:    462b        +F      MOV      r3,r5
        0x000003a2:    f000f966    ..f.    BL       _double_epilogue ; 0x672
        0x000003a6:    b003        ..      ADD      sp,sp,#0xc
        0x000003a8:    e8bd8ff0    ....    POP      {r4-r11,pc}
        0x000003ac:    4640        @F      MOV      r0,r8
        0x000003ae:    4621        !F      MOV      r1,r4
        0x000003b0:    e7f9        ..      B        0x3a6 ; __aeabi_dadd + 190
        0x000003b2:    1b00        ..      SUBS     r0,r0,r4
        0x000003b4:    eb610102    a...    SBC      r1,r1,r2
        0x000003b8:    1c00        ..      ADDS     r0,r0,#0
        0x000003ba:    f5411380    A...    ADC      r3,r1,#0x100000
        0x000003be:    1800        ..      ADDS     r0,r0,r0
        0x000003c0:    415b        [A      ADCS     r3,r3,r3
        0x000003c2:    1820         .      ADDS     r0,r4,r0
        0x000003c4:    f5a21700    ....    SUB      r7,r2,#0x200000
        0x000003c8:    eb470103    G...    ADC      r1,r7,r3
        0x000003cc:    ea4070d5    @..p    ORR      r0,r0,r5,LSR #31
        0x000003d0:    19b6        ..      ADDS     r6,r6,r6
        0x000003d2:    416d        mA      ADCS     r5,r5,r5
        0x000003d4:    e011        ..      B        0x3fa ; __aeabi_dadd + 274
        0x000003d6:    086d        m.      LSRS     r5,r5,#1
        0x000003d8:    ea4f0636    O.6.    RRX      r6,r6
        0x000003dc:    ea4575c0    E..u    ORR      r5,r5,r0,LSL #31
        0x000003e0:    ea4f5207    O..R    LSL      r2,r7,#20
        0x000003e4:    1b00        ..      SUBS     r0,r0,r4
        0x000003e6:    eb610102    a...    SBC      r1,r1,r2
        0x000003ea:    1c00        ..      ADDS     r0,r0,#0
        0x000003ec:    f5411180    A...    ADC      r1,r1,#0x100000
        0x000003f0:    0849        I.      LSRS     r1,r1,#1
        0x000003f2:    ea4f0030    O.0.    RRX      r0,r0
        0x000003f6:    1900        ..      ADDS     r0,r0,r4
        0x000003f8:    4151        QA      ADCS     r1,r1,r2
        0x000003fa:    4632        2F      MOV      r2,r6
        0x000003fc:    462b        +F      MOV      r3,r5
        0x000003fe:    b003        ..      ADD      sp,sp,#0xc
        0x00000400:    e8bd4ff0    ...O    POP      {r4-r11,lr}
        0x00000404:    f000b926    ..&.    B.W      _double_round ; 0x654
        0x00000408:    9800        ..      LDR      r0,[sp,#0]
        0x0000040a:    2201        ."      MOVS     r2,#1
        0x0000040c:    0040        @.      LSLS     r0,r0,#1
        0x0000040e:    2300        .#      MOVS     r3,#0
        0x00000410:    ebd00202    ....    RSBS     r2,r0,r2
        0x00000414:    eb6373e0    c..s    SBC      r3,r3,r0,ASR #31
        0x00000418:    9800        ..      LDR      r0,[sp,#0]
        0x0000041a:    4621        !F      MOV      r1,r4
        0x0000041c:    ea4f74e0    O..t    ASR      r4,r0,#31
        0x00000420:    ebb80000    ....    SUBS     r0,r8,r0
        0x00000424:    eb610104    a...    SBC      r1,r1,r4
        0x00000428:    e7e9        ..      B        0x3fe ; __aeabi_dadd + 278
    __aeabi_dsub
        0x0000042a:    f0834300    ...C    EOR      r3,r3,#0x80000000
        0x0000042e:    e75b        [.      B        __aeabi_dadd ; 0x2e8
    __aeabi_drsub
        0x00000430:    f0814100    ...A    EOR      r1,r1,#0x80000000
        0x00000434:    e758        X.      B        __aeabi_dadd ; 0x2e8
    .text
    __aeabi_dmul
        0x00000436:    e92d4ffe    -..O    PUSH     {r1-r11,lr}
        0x0000043a:    ea810403    ....    EOR      r4,r1,r3
        0x0000043e:    f0044400    ...D    AND      r4,r4,#0x80000000
        0x00000442:    f0214100    !..A    BIC      r1,r1,#0x80000000
        0x00000446:    9400        ..      STR      r4,[sp,#0]
        0x00000448:    f04f0b00    O...    MOV      r11,#0
        0x0000044c:    f0234300    #..C    BIC      r3,r3,#0x80000000
        0x00000450:    ea500401    P...    ORRS     r4,r0,r1
        0x00000454:    d05e        ^.      BEQ      0x514 ; __aeabi_dmul + 222
        0x00000456:    ea520403    R...    ORRS     r4,r2,r3
        0x0000045a:    d05b        [.      BEQ      0x514 ; __aeabi_dmul + 222
        0x0000045c:    f3c3540a    ...T    UBFX     r4,r3,#20,#11
        0x00000460:    f3c1550a    ...U    UBFX     r5,r1,#20,#11
        0x00000464:    442c        ,D      ADD      r4,r4,r5
        0x00000466:    f2a434f3    ...4    SUB      r4,r4,#0x3f3
        0x0000046a:    9401        ..      STR      r4,[sp,#4]
        0x0000046c:    fba05402    ...T    UMULL    r5,r4,r0,r2
        0x00000470:    f3c10113    ....    UBFX     r1,r1,#0,#20
        0x00000474:    f4411180    A...    ORR      r1,r1,#0x100000
        0x00000478:    f3c30313    ....    UBFX     r3,r3,#0,#20
        0x0000047c:    f4431380    C...    ORR      r3,r3,#0x100000
        0x00000480:    fb014402    ...D    MLA      r4,r1,r2,r4
        0x00000484:    fb004e03    ...N    MLA      lr,r0,r3,r4
        0x00000488:    0a84        ..      LSRS     r4,r0,#10
        0x0000048a:    0a97        ..      LSRS     r7,r2,#10
        0x0000048c:    ea445481    D..T    ORR      r4,r4,r1,LSL #22
        0x00000490:    ea475783    G..W    ORR      r7,r7,r3,LSL #22
        0x00000494:    fba46807    ...h    UMULL    r6,r8,r4,r7
        0x00000498:    9502        ..      STR      r5,[sp,#8]
        0x0000049a:    0a8d        ..      LSRS     r5,r1,#10
        0x0000049c:    fb058507    ....    MLA      r5,r5,r7,r8
        0x000004a0:    ea4f2c93    O..,    LSR      r12,r3,#10
        0x000004a4:    fb04540c    ...T    MLA      r4,r4,r12,r5
        0x000004a8:    0527        '.      LSLS     r7,r4,#20
        0x000004aa:    9d02        ..      LDR      r5,[sp,#8]
        0x000004ac:    ea4f5806    O..X    LSL      r8,r6,#20
        0x000004b0:    ea473716    G..7    ORR      r7,r7,r6,LSR #12
        0x000004b4:    ebb50508    ....    SUBS     r5,r5,r8
        0x000004b8:    eb6e0c07    n...    SBC      r12,lr,r7
        0x000004bc:    0e87        ..      LSRS     r7,r0,#26
        0x000004be:    0e92        ..      LSRS     r2,r2,#26
        0x000004c0:    ea471781    G...    ORR      r7,r7,r1,LSL #6
        0x000004c4:    ea421283    B...    ORR      r2,r2,r3,LSL #6
        0x000004c8:    fba70102    ....    UMULL    r0,r1,r7,r2
        0x000004cc:    ebb6010b    ....    SUBS     r1,r6,r11
        0x000004d0:    eb640400    d...    SBC      r4,r4,r0
        0x000004d4:    0d2b        +.      LSRS     r3,r5,#20
        0x000004d6:    ea43330c    C..3    ORR      r3,r3,r12,LSL #12
        0x000004da:    185e        ^.      ADDS     r6,r3,r1
        0x000004dc:    eb44501c    D..P    ADC      r0,r4,r12,LSR #20
        0x000004e0:    46da        .F      MOV      r10,r11
        0x000004e2:    4651        QF      MOV      r1,r10
        0x000004e4:    fbe70102    ....    UMLAL    r0,r1,r7,r2
        0x000004e8:    f3c50413    ....    UBFX     r4,r5,#0,#20
        0x000004ec:    ea4f330b    O..3    LSL      r3,r11,#12
        0x000004f0:    ea435314    C..S    ORR      r3,r3,r4,LSR #20
        0x000004f4:    ea4f3204    O..2    LSL      r2,r4,#12
        0x000004f8:    9c01        ..      LDR      r4,[sp,#4]
        0x000004fa:    ea430306    C...    ORR      r3,r3,r6
        0x000004fe:    f1a4040c    ....    SUB      r4,r4,#0xc
        0x00000502:    9402        ..      STR      r4,[sp,#8]
        0x00000504:    9c00        ..      LDR      r4,[sp,#0]
        0x00000506:    e9cdb400    ....    STRD     r11,r4,[sp,#0]
        0x0000050a:    f000f8b2    ....    BL       _double_epilogue ; 0x672
        0x0000050e:    b003        ..      ADD      sp,sp,#0xc
        0x00000510:    e8bd8ff0    ....    POP      {r4-r11,pc}
        0x00000514:    2000        .       MOVS     r0,#0
        0x00000516:    4601        .F      MOV      r1,r0
        0x00000518:    e7f9        ..      B        0x50e ; __aeabi_dmul + 216
    .text
    __aeabi_f2ulz
        0x0000051a:    f0204000     ..@    BIC      r0,r0,#0x80000000
        0x0000051e:    0dc2        ..      LSRS     r2,r0,#23
        0x00000520:    f3c00016    ....    UBFX     r0,r0,#0,#23
        0x00000524:    f4400000    @...    ORR      r0,r0,#0x800000
        0x00000528:    2a7f        .*      CMP      r2,#0x7f
        0x0000052a:    da02        ..      BGE      0x532 ; __aeabi_f2ulz + 24
        0x0000052c:    2000        .       MOVS     r0,#0
        0x0000052e:    4601        .F      MOV      r1,r0
        0x00000530:    4770        pG      BX       lr
        0x00000532:    2100        .!      MOVS     r1,#0
        0x00000534:    2a96        .*      CMP      r2,#0x96
        0x00000536:    dc03        ..      BGT      0x540 ; __aeabi_f2ulz + 38
        0x00000538:    f1c20296    ....    RSB      r2,r2,#0x96
        0x0000053c:    40d0        .@      LSRS     r0,r0,r2
        0x0000053e:    4770        pG      BX       lr
        0x00000540:    3a96        .:      SUBS     r2,r2,#0x96
        0x00000542:    f000b82f    ../.    B.W      __aeabi_llsl ; 0x5a4
    .text
    __aeabi_f2d
        0x00000546:    f0004200    ...B    AND      r2,r0,#0x80000000
        0x0000054a:    f0304000    0..@    BICS     r0,r0,#0x80000000
        0x0000054e:    d00a        ..      BEQ      0x566 ; __aeabi_f2d + 32
        0x00000550:    0dc1        ..      LSRS     r1,r0,#23
        0x00000552:    f5017160    ..`q    ADD      r1,r1,#0x380
        0x00000556:    f3c00016    ....    UBFX     r0,r0,#0,#23
        0x0000055a:    ea425101    B..Q    ORR      r1,r2,r1,LSL #20
        0x0000055e:    08c2        ..      LSRS     r2,r0,#3
        0x00000560:    0740        @.      LSLS     r0,r0,#29
        0x00000562:    4311        .C      ORRS     r1,r1,r2
        0x00000564:    4770        pG      BX       lr
        0x00000566:    2000        .       MOVS     r0,#0
        0x00000568:    4601        .F      MOV      r1,r0
        0x0000056a:    4770        pG      BX       lr
    .text
    __aeabi_d2f
        0x0000056c:    f0014300    ...C    AND      r3,r1,#0x80000000
        0x00000570:    b430        0.      PUSH     {r4,r5}
        0x00000572:    f0214100    !..A    BIC      r1,r1,#0x80000000
        0x00000576:    ea500201    P...    ORRS     r2,r0,r1
        0x0000057a:    d006        ..      BEQ      0x58a ; __aeabi_d2f + 30
        0x0000057c:    0d0a        ..      LSRS     r2,r1,#20
        0x0000057e:    f5a27260    ..`r    SUB      r2,r2,#0x380
        0x00000582:    f3c10113    ....    UBFX     r1,r1,#0,#20
        0x00000586:    2a00        .*      CMP      r2,#0
        0x00000588:    dc02        ..      BGT      0x590 ; __aeabi_d2f + 36
        0x0000058a:    bc30        0.      POP      {r4,r5}
        0x0000058c:    2000        .       MOVS     r0,#0
        0x0000058e:    4770        pG      BX       lr
        0x00000590:    0f44        D.      LSRS     r4,r0,#29
        0x00000592:    ea4404c1    D...    ORR      r4,r4,r1,LSL #3
        0x00000596:    00c1        ..      LSLS     r1,r0,#3
        0x00000598:    18e0        ..      ADDS     r0,r4,r3
        0x0000059a:    bc30        0.      POP      {r4,r5}
        0x0000059c:    eb0050c2    ...P    ADD      r0,r0,r2,LSL #23
        0x000005a0:    f000b821    ..!.    B.W      __I$use$fp ; 0x5e6
    .text
    __aeabi_llsl
    _ll_shift_l
        0x000005a4:    2a20         *      CMP      r2,#0x20
        0x000005a6:    db04        ..      BLT      0x5b2 ; __aeabi_llsl + 14
        0x000005a8:    3a20         :      SUBS     r2,r2,#0x20
        0x000005aa:    fa00f102    ....    LSL      r1,r0,r2
        0x000005ae:    2000        .       MOVS     r0,#0
        0x000005b0:    4770        pG      BX       lr
        0x000005b2:    4091        .@      LSLS     r1,r1,r2
        0x000005b4:    f1c20320    .. .    RSB      r3,r2,#0x20
        0x000005b8:    fa20f303     ...    LSR      r3,r0,r3
        0x000005bc:    4319        .C      ORRS     r1,r1,r3
        0x000005be:    4090        .@      LSLS     r0,r0,r2
        0x000005c0:    4770        pG      BX       lr
    .text
    __aeabi_lasr
    _ll_sshift_r
        0x000005c2:    2a20         *      CMP      r2,#0x20
        0x000005c4:    db06        ..      BLT      0x5d4 ; __aeabi_lasr + 18
        0x000005c6:    17cb        ..      ASRS     r3,r1,#31
        0x000005c8:    3a20         :      SUBS     r2,r2,#0x20
        0x000005ca:    fa41f002    A...    ASR      r0,r1,r2
        0x000005ce:    ea4373e0    C..s    ORR      r3,r3,r0,ASR #31
        0x000005d2:    e006        ..      B        0x5e2 ; __aeabi_lasr + 32
        0x000005d4:    fa41f302    A...    ASR      r3,r1,r2
        0x000005d8:    40d0        .@      LSRS     r0,r0,r2
        0x000005da:    f1c20220    .. .    RSB      r2,r2,#0x20
        0x000005de:    4091        .@      LSLS     r1,r1,r2
        0x000005e0:    4308        .C      ORRS     r0,r0,r1
        0x000005e2:    4619        .F      MOV      r1,r3
        0x000005e4:    4770        pG      BX       lr
    .text
    .text
    __I$use$fp
    _float_round
        0x000005e6:    2900        .)      CMP      r1,#0
        0x000005e8:    bfa8        ..      IT       GE
        0x000005ea:    4770        pG      BXGE     lr
        0x000005ec:    1c40        @.      ADDS     r0,r0,#1
        0x000005ee:    0049        I.      LSLS     r1,r1,#1
        0x000005f0:    bf08        ..      IT       EQ
        0x000005f2:    f0200001     ...    BICEQ    r0,r0,#1
        0x000005f6:    4770        pG      BX       lr
    _float_epilogue
        0x000005f8:    b410        ..      PUSH     {r4}
        0x000005fa:    fab0fc80    ....    CLZ      r12,r0
        0x000005fe:    fa00f00c    ....    LSL      r0,r0,r12
        0x00000602:    ea500401    P...    ORRS     r4,r0,r1
        0x00000606:    bf04        ..      ITT      EQ
        0x00000608:    bc10        ..      POPEQ    {r4}
        0x0000060a:    4770        pG      BXEQ     lr
        0x0000060c:    b149        I.      CBZ      r1,0x622 ; _float_epilogue + 42
        0x0000060e:    f1cc0420    .. .    RSB      r4,r12,#0x20
        0x00000612:    fa21f404    !...    LSR      r4,r1,r4
        0x00000616:    fa11f10c    ....    LSLS     r1,r1,r12
        0x0000061a:    bf18        ..      IT       NE
        0x0000061c:    2101        .!      MOVNE    r1,#1
        0x0000061e:    4321        !C      ORRS     r1,r1,r4
        0x00000620:    4308        .C      ORRS     r0,r0,r1
        0x00000622:    eba3010c    ....    SUB      r1,r3,r12
        0x00000626:    1dcb        ..      ADDS     r3,r1,#7
        0x00000628:    ea4f6100    O..a    LSL      r1,r0,#24
        0x0000062c:    ea4f2010    O..     LSR      r0,r0,#8
        0x00000630:    bf42        B.      ITTT     MI
        0x00000632:    2000        .       MOVMI    r0,#0
        0x00000634:    bc10        ..      POPMI    {r4}
        0x00000636:    4770        pG      BXMI     lr
        0x00000638:    eb0050c3    ...P    ADD      r0,r0,r3,LSL #23
        0x0000063c:    4410        .D      ADD      r0,r0,r2
        0x0000063e:    2900        .)      CMP      r1,#0
        0x00000640:    bfa4        ..      ITT      GE
        0x00000642:    bc10        ..      POPGE    {r4}
        0x00000644:    4770        pG      BXGE     lr
        0x00000646:    1c40        @.      ADDS     r0,r0,#1
        0x00000648:    0049        I.      LSLS     r1,r1,#1
        0x0000064a:    bf08        ..      IT       EQ
        0x0000064c:    f0200001     ...    BICEQ    r0,r0,#1
        0x00000650:    bc10        ..      POP      {r4}
        0x00000652:    4770        pG      BX       lr
    .text
    _double_round
        0x00000654:    b510        ..      PUSH     {r4,lr}
        0x00000656:    1e14        ..      SUBS     r4,r2,#0
        0x00000658:    f1730400    s...    SBCS     r4,r3,#0
        0x0000065c:    da08        ..      BGE      0x670 ; _double_round + 28
        0x0000065e:    1c40        @.      ADDS     r0,r0,#1
        0x00000660:    f1410100    A...    ADC      r1,r1,#0
        0x00000664:    1892        ..      ADDS     r2,r2,r2
        0x00000666:    415b        [A      ADCS     r3,r3,r3
        0x00000668:    431a        .C      ORRS     r2,r2,r3
        0x0000066a:    d101        ..      BNE      0x670 ; _double_round + 28
        0x0000066c:    f0200001     ...    BIC      r0,r0,#1
        0x00000670:    bd10        ..      POP      {r4,pc}
    _double_epilogue
        0x00000672:    e92d4df0    -..M    PUSH     {r4-r8,r10,r11,lr}
        0x00000676:    4692        .F      MOV      r10,r2
        0x00000678:    469b        .F      MOV      r11,r3
        0x0000067a:    b111        ..      CBZ      r1,0x682 ; _double_epilogue + 16
        0x0000067c:    fab1f281    ....    CLZ      r2,r1
        0x00000680:    e002        ..      B        0x688 ; _double_epilogue + 22
        0x00000682:    fab0f280    ....    CLZ      r2,r0
        0x00000686:    3220         2      ADDS     r2,r2,#0x20
        0x00000688:    4690        .F      MOV      r8,r2
        0x0000068a:    f7ffff8b    ....    BL       __aeabi_llsl ; 0x5a4
        0x0000068e:    4604        .F      MOV      r4,r0
        0x00000690:    460f        .F      MOV      r7,r1
        0x00000692:    ea40000a    @...    ORR      r0,r0,r10
        0x00000696:    ea41010b    A...    ORR      r1,r1,r11
        0x0000069a:    4653        SF      MOV      r3,r10
        0x0000069c:    465a        ZF      MOV      r2,r11
        0x0000069e:    4308        .C      ORRS     r0,r0,r1
        0x000006a0:    d013        ..      BEQ      0x6ca ; _double_epilogue + 88
        0x000006a2:    4611        .F      MOV      r1,r2
        0x000006a4:    ea530001    S...    ORRS     r0,r3,r1
        0x000006a8:    d019        ..      BEQ      0x6de ; _double_epilogue + 108
        0x000006aa:    f1c80240    ..@.    RSB      r2,r8,#0x40
        0x000006ae:    4650        PF      MOV      r0,r10
        0x000006b0:    f000f840    ..@.    BL       __aeabi_llsr ; 0x734
        0x000006b4:    4605        .F      MOV      r5,r0
        0x000006b6:    460e        .F      MOV      r6,r1
        0x000006b8:    4650        PF      MOV      r0,r10
        0x000006ba:    4659        YF      MOV      r1,r11
        0x000006bc:    4642        BF      MOV      r2,r8
        0x000006be:    f7ffff71    ..q.    BL       __aeabi_llsl ; 0x5a4
        0x000006c2:    4308        .C      ORRS     r0,r0,r1
        0x000006c4:    d005        ..      BEQ      0x6d2 ; _double_epilogue + 96
        0x000006c6:    2001        .       MOVS     r0,#1
        0x000006c8:    e004        ..      B        0x6d4 ; _double_epilogue + 98
        0x000006ca:    4620         F      MOV      r0,r4
        0x000006cc:    4639        9F      MOV      r1,r7
        0x000006ce:    e8bd8df0    ....    POP      {r4-r8,r10,r11,pc}
        0x000006d2:    2000        .       MOVS     r0,#0
        0x000006d4:    4305        .C      ORRS     r5,r5,r0
        0x000006d6:    ea4676e0    F..v    ORR      r6,r6,r0,ASR #31
        0x000006da:    432c        ,C      ORRS     r4,r4,r5
        0x000006dc:    4337        7C      ORRS     r7,r7,r6
        0x000006de:    980a        ..      LDR      r0,[sp,#0x28]
        0x000006e0:    0563        c.      LSLS     r3,r4,#21
        0x000006e2:    0ae4        ..      LSRS     r4,r4,#11
        0x000006e4:    eba00008    ....    SUB      r0,r0,r8
        0x000006e8:    2200        ."      MOVS     r2,#0
        0x000006ea:    0afd        ..      LSRS     r5,r7,#11
        0x000006ec:    ea445447    D.GT    ORR      r4,r4,r7,LSL #21
        0x000006f0:    300a        .0      ADDS     r0,r0,#0xa
        0x000006f2:    d502        ..      BPL      0x6fa ; _double_epilogue + 136
        0x000006f4:    2000        .       MOVS     r0,#0
        0x000006f6:    4601        .F      MOV      r1,r0
        0x000006f8:    e7e9        ..      B        0x6ce ; _double_epilogue + 92
        0x000006fa:    0501        ..      LSLS     r1,r0,#20
        0x000006fc:    1910        ..      ADDS     r0,r2,r4
        0x000006fe:    4169        iA      ADCS     r1,r1,r5
        0x00000700:    e9dd4508    ...E    LDRD     r4,r5,[sp,#0x20]
        0x00000704:    1900        ..      ADDS     r0,r0,r4
        0x00000706:    4169        iA      ADCS     r1,r1,r5
        0x00000708:    e8bd4df0    ...M    POP      {r4-r8,r10,r11,lr}
        0x0000070c:    e7a2        ..      B        _double_round ; 0x654
        0x0000070e:    0000        ..      MOVS     r0,r0
    .text
    __scatterload
    __scatterload_rt2
        0x00000710:    4c06        .L      LDR      r4,[pc,#24] ; [0x72c] = 0x5b14
        0x00000712:    4d07        .M      LDR      r5,[pc,#28] ; [0x730] = 0x5b34
        0x00000714:    e006        ..      B        0x724 ; __scatterload + 20
        0x00000716:    68e0        .h      LDR      r0,[r4,#0xc]
        0x00000718:    f0400301    @...    ORR      r3,r0,#1
        0x0000071c:    e8940007    ....    LDM      r4,{r0-r2}
        0x00000720:    4798        .G      BLX      r3
        0x00000722:    3410        .4      ADDS     r4,r4,#0x10
        0x00000724:    42ac        .B      CMP      r4,r5
        0x00000726:    d3f6        ..      BCC      0x716 ; __scatterload + 6
        0x00000728:    f7fffdb2    ....    BL       __main_after_scatterload ; 0x290
    $d
        0x0000072c:    00005b14    .[..    DCD    23316
        0x00000730:    00005b34    4[..    DCD    23348
    $t
    .text
    __aeabi_llsr
    _ll_ushift_r
        0x00000734:    2a20         *      CMP      r2,#0x20
        0x00000736:    db04        ..      BLT      0x742 ; __aeabi_llsr + 14
        0x00000738:    3a20         :      SUBS     r2,r2,#0x20
        0x0000073a:    fa21f002    !...    LSR      r0,r1,r2
        0x0000073e:    2100        .!      MOVS     r1,#0
        0x00000740:    4770        pG      BX       lr
        0x00000742:    fa21f302    !...    LSR      r3,r1,r2
        0x00000746:    40d0        .@      LSRS     r0,r0,r2
        0x00000748:    f1c20220    .. .    RSB      r2,r2,#0x20
        0x0000074c:    4091        .@      LSLS     r1,r1,r2
        0x0000074e:    4308        .C      ORRS     r0,r0,r1
        0x00000750:    4619        .F      MOV      r1,r3
        0x00000752:    4770        pG      BX       lr
    .text
    __decompress
    __decompress0
        0x00000754:    b530        0.      PUSH     {r4,r5,lr}
        0x00000756:    188c        ..      ADDS     r4,r1,r2
        0x00000758:    f8102b01    ...+    LDRB     r2,[r0],#1
        0x0000075c:    f012030f    ....    ANDS     r3,r2,#0xf
        0x00000760:    d101        ..      BNE      0x766 ; __decompress + 18
        0x00000762:    f8103b01    ...;    LDRB     r3,[r0],#1
        0x00000766:    0912        ..      LSRS     r2,r2,#4
        0x00000768:    d106        ..      BNE      0x778 ; __decompress + 36
        0x0000076a:    f8102b01    ...+    LDRB     r2,[r0],#1
        0x0000076e:    e003        ..      B        0x778 ; __decompress + 36
        0x00000770:    f8105b01    ...[    LDRB     r5,[r0],#1
        0x00000774:    f8015b01    ...[    STRB     r5,[r1],#1
        0x00000778:    1e5b        [.      SUBS     r3,r3,#1
        0x0000077a:    d1f9        ..      BNE      0x770 ; __decompress + 28
        0x0000077c:    e001        ..      B        0x782 ; __decompress + 46
        0x0000077e:    f8013b01    ...;    STRB     r3,[r1],#1
        0x00000782:    1e52        R.      SUBS     r2,r2,#1
        0x00000784:    d1fb        ..      BNE      0x77e ; __decompress + 42
        0x00000786:    42a1        .B      CMP      r1,r4
        0x00000788:    d3e6        ..      BCC      0x758 ; __decompress + 4
        0x0000078a:    2000        .       MOVS     r0,#0
        0x0000078c:    bd30        0.      POP      {r4,r5,pc}
    i.CompDCMAccelUpdate
    CompDCMAccelUpdate
        0x0000078e:    ed800a0d    ....    VSTR     s0,[r0,#0x34]
        0x00000792:    edc00a0e    ....    VSTR     s1,[r0,#0x38]
        0x00000796:    ed801a0f    ....    VSTR     s2,[r0,#0x3c]
        0x0000079a:    4770        pG      BX       lr
    i.CompDCMComputeEulers
    CompDCMComputeEulers
        0x0000079c:    e92d41f0    -..A    PUSH     {r4-r8,lr}
        0x000007a0:    461d        .F      MOV      r5,r3
        0x000007a2:    4616        .F      MOV      r6,r2
        0x000007a4:    000f        ..      MOVS     r7,r1
        0x000007a6:    4604        .F      MOV      r4,r0
        0x000007a8:    d007        ..      BEQ      0x7ba ; CompDCMComputeEulers + 30
        0x000007aa:    edd40a08    ....    VLDR     s1,[r4,#0x20]
        0x000007ae:    ed940a07    ....    VLDR     s0,[r4,#0x1c]
        0x000007b2:    f004f84d    ..M.    BL       __hardfp_atan2f ; 0x4850
        0x000007b6:    ed870a00    ....    VSTR     s0,[r7,#0]
        0x000007ba:    b13e        >.      CBZ      r6,0x7cc ; CompDCMComputeEulers + 48
        0x000007bc:    ed940a06    ....    VLDR     s0,[r4,#0x18]
        0x000007c0:    f003ffb0    ....    BL       __hardfp_asinf ; 0x4724
        0x000007c4:    eeb10a40    ..@.    VNEG.F32 s0,s0
        0x000007c8:    ed860a00    ....    VSTR     s0,[r6,#0]
        0x000007cc:    2d00        .-      CMP      r5,#0
        0x000007ce:    bf08        ..      IT       EQ
        0x000007d0:    e8bd81f0    ....    POPEQ    {r4-r8,pc}
        0x000007d4:    edd40a00    ....    VLDR     s1,[r4,#0]
        0x000007d8:    ed940a03    ....    VLDR     s0,[r4,#0xc]
        0x000007dc:    f004f838    ..8.    BL       __hardfp_atan2f ; 0x4850
        0x000007e0:    ed850a00    ....    VSTR     s0,[r5,#0]
        0x000007e4:    e8bd81f0    ....    POP      {r4-r8,pc}
    i.CompDCMComputeQuaternion
    CompDCMComputeQuaternion
        0x000007e8:    b570        p.      PUSH     {r4-r6,lr}
        0x000007ea:    eef72a00    ...*    VMOV.F32 s5,#1.00000000
        0x000007ee:    ed2d8b02    -...    VPUSH    {d8}
        0x000007f2:    eef68a00    ....    VMOV.F32 s17,#0.50000000
        0x000007f6:    ed901a00    ....    VLDR     s2,[r0,#0]
        0x000007fa:    ed902a04    ...*    VLDR     s4,[r0,#0x10]
        0x000007fe:    edd01a08    ....    VLDR     s3,[r0,#0x20]
        0x00000802:    ee710a22    q.".    VADD.F32 s1,s2,s5
        0x00000806:    ee722ac1    r..*    VSUB.F32 s5,s5,s2
        0x0000080a:    eeb18a00    ....    VMOV.F32 s16,#4.00000000
        0x0000080e:    460d        .F      MOV      r5,r1
        0x00000810:    ee300a82    0...    VADD.F32 s0,s1,s4
        0x00000814:    ee700ac2    p...    VSUB.F32 s1,s1,s4
        0x00000818:    ee321a82    2...    VADD.F32 s2,s5,s4
        0x0000081c:    ee322ac2    2..*    VSUB.F32 s4,s5,s4
        0x00000820:    ee300a21    0.!.    VADD.F32 s0,s0,s3
        0x00000824:    ee700ae1    p...    VSUB.F32 s1,s1,s3
        0x00000828:    ee311a61    1.a.    VSUB.F32 s2,s2,s3
        0x0000082c:    ee721a21    r.!.    VADD.F32 s3,s4,s3
        0x00000830:    4604        .F      MOV      r4,r0
        0x00000832:    eeb40ae0    ....    VCMPE.F32 s0,s1
        0x00000836:    eef1fa10    ....    VMRS     APSR_nzcv,FPSCR
        0x0000083a:    bfc1        ..      ITTTT    GT
        0x0000083c:    eeb40ac1    ....    VCMPEGT.F32 s0,s2
        0x00000840:    eef1fa10    ....    VMRSGT   APSR_nzcv,FPSCR
        0x00000844:    eeb40ae1    ....    VCMPEGT.F32 s0,s3
        0x00000848:    eef1fa10    ....    VMRSGT   APSR_nzcv,FPSCR
        0x0000084c:    dd31        1.      BLE      0x8b2 ; CompDCMComputeQuaternion + 202
        0x0000084e:    eef10ac0    ....    VSQRT.F32 s1,s0
        0x00000852:    eef40a60    ..`.    VCMP.F32 s1,s1
        0x00000856:    eef1fa10    ....    VMRS     APSR_nzcv,FPSCR
        0x0000085a:    d003        ..      BEQ      0x864 ; CompDCMComputeQuaternion + 124
        0x0000085c:    f004f920    .. .    BL       __hardfp_sqrtf ; 0x4aa0
        0x00000860:    eef00a40    ..@.    VMOV.F32 s1,s0
        0x00000864:    ee200aa8     ...    VMUL.F32 s0,s1,s17
        0x00000868:    ed850a00    ....    VSTR     s0,[r5,#0]
        0x0000086c:    edd40a07    ....    VLDR     s1,[r4,#0x1c]
        0x00000870:    ed941a05    ....    VLDR     s2,[r4,#0x14]
        0x00000874:    ee200a08     ...    VMUL.F32 s0,s0,s16
        0x00000878:    ee700ac1    p...    VSUB.F32 s1,s1,s2
        0x0000087c:    ee801a80    ....    VDIV.F32 s2,s1,s0
        0x00000880:    ed851a01    ....    VSTR     s2,[r5,#4]
        0x00000884:    edd40a02    ....    VLDR     s1,[r4,#8]
        0x00000888:    ed941a06    ....    VLDR     s2,[r4,#0x18]
        0x0000088c:    ee700ac1    p...    VSUB.F32 s1,s1,s2
        0x00000890:    ee801a80    ....    VDIV.F32 s2,s1,s0
        0x00000894:    ed851a02    ....    VSTR     s2,[r5,#8]
        0x00000898:    edd40a03    ....    VLDR     s1,[r4,#0xc]
        0x0000089c:    ed941a01    ....    VLDR     s2,[r4,#4]
        0x000008a0:    ee700ac1    p...    VSUB.F32 s1,s1,s2
        0x000008a4:    ee801a80    ....    VDIV.F32 s2,s1,s0
        0x000008a8:    ed851a03    ....    VSTR     s2,[r5,#0xc]
        0x000008ac:    ecbd8b02    ....    VPOP     {d8}
        0x000008b0:    bd70        p.      POP      {r4-r6,pc}
        0x000008b2:    eef40ac1    ....    VCMPE.F32 s1,s2
        0x000008b6:    eef1fa10    ....    VMRS     APSR_nzcv,FPSCR
        0x000008ba:    bfc4        ..      ITT      GT
        0x000008bc:    eef40ae1    ....    VCMPEGT.F32 s1,s3
        0x000008c0:    eef1fa10    ....    VMRSGT   APSR_nzcv,FPSCR
        0x000008c4:    dd31        1.      BLE      0x92a ; CompDCMComputeQuaternion + 322
        0x000008c6:    eeb10ae0    ....    VSQRT.F32 s0,s1
        0x000008ca:    eeb40a40    ..@.    VCMP.F32 s0,s0
        0x000008ce:    eef1fa10    ....    VMRS     APSR_nzcv,FPSCR
        0x000008d2:    bf1c        ..      ITT      NE
        0x000008d4:    eeb00a60    ..`.    VMOVNE.F32 s0,s1
        0x000008d8:    f004f8e2    ....    BLNE     __hardfp_sqrtf ; 0x4aa0
        0x000008dc:    ee600a28    `.(.    VMUL.F32 s1,s0,s17
        0x000008e0:    ed940a07    ....    VLDR     s0,[r4,#0x1c]
        0x000008e4:    ed941a05    ....    VLDR     s2,[r4,#0x14]
        0x000008e8:    ee301a41    0.A.    VSUB.F32 s2,s0,s2
        0x000008ec:    ee200a88     ...    VMUL.F32 s0,s1,s16
        0x000008f0:    eec11a00    ....    VDIV.F32 s3,s2,s0
        0x000008f4:    edc51a00    ....    VSTR     s3,[r5,#0]
        0x000008f8:    edc50a01    ....    VSTR     s1,[r5,#4]
        0x000008fc:    edd40a03    ....    VLDR     s1,[r4,#0xc]
        0x00000900:    ed941a01    ....    VLDR     s2,[r4,#4]
        0x00000904:    ee700a81    p...    VADD.F32 s1,s1,s2
        0x00000908:    ee801a80    ....    VDIV.F32 s2,s1,s0
        0x0000090c:    ed851a02    ....    VSTR     s2,[r5,#8]
        0x00000910:    edd40a02    ....    VLDR     s1,[r4,#8]
        0x00000914:    ed941a06    ....    VLDR     s2,[r4,#0x18]
        0x00000918:    ee700a81    p...    VADD.F32 s1,s1,s2
        0x0000091c:    ee801a80    ....    VDIV.F32 s2,s1,s0
        0x00000920:    ed851a03    ....    VSTR     s2,[r5,#0xc]
        0x00000924:    ecbd8b02    ....    VPOP     {d8}
        0x00000928:    bd70        p.      POP      {r4-r6,pc}
        0x0000092a:    eeb41ae1    ....    VCMPE.F32 s2,s3
        0x0000092e:    eef1fa10    ....    VMRS     APSR_nzcv,FPSCR
        0x00000932:    dd31        1.      BLE      0x998 ; CompDCMComputeQuaternion + 432
        0x00000934:    eeb10ac1    ....    VSQRT.F32 s0,s2
        0x00000938:    eeb40a40    ..@.    VCMP.F32 s0,s0
        0x0000093c:    eef1fa10    ....    VMRS     APSR_nzcv,FPSCR
        0x00000940:    bf1c        ..      ITT      NE
        0x00000942:    eeb00a41    ..A.    VMOVNE.F32 s0,s2
        0x00000946:    f004f8ab    ....    BLNE     __hardfp_sqrtf ; 0x4aa0
        0x0000094a:    ee600a28    `.(.    VMUL.F32 s1,s0,s17
        0x0000094e:    ed940a02    ....    VLDR     s0,[r4,#8]
        0x00000952:    ed941a06    ....    VLDR     s2,[r4,#0x18]
        0x00000956:    ee301a41    0.A.    VSUB.F32 s2,s0,s2
        0x0000095a:    ee200a88     ...    VMUL.F32 s0,s1,s16
        0x0000095e:    eec11a00    ....    VDIV.F32 s3,s2,s0
        0x00000962:    edc51a00    ....    VSTR     s3,[r5,#0]
        0x00000966:    ed941a03    ....    VLDR     s2,[r4,#0xc]
        0x0000096a:    edd41a01    ....    VLDR     s3,[r4,#4]
        0x0000096e:    ee311a21    1.!.    VADD.F32 s2,s2,s3
        0x00000972:    eec11a00    ....    VDIV.F32 s3,s2,s0
        0x00000976:    edc51a01    ....    VSTR     s3,[r5,#4]
        0x0000097a:    edc50a02    ....    VSTR     s1,[r5,#8]
        0x0000097e:    edd40a07    ....    VLDR     s1,[r4,#0x1c]
        0x00000982:    ed941a05    ....    VLDR     s2,[r4,#0x14]
        0x00000986:    ee700a81    p...    VADD.F32 s1,s1,s2
        0x0000098a:    ee801a80    ....    VDIV.F32 s2,s1,s0
        0x0000098e:    ed851a03    ....    VSTR     s2,[r5,#0xc]
        0x00000992:    ecbd8b02    ....    VPOP     {d8}
        0x00000996:    bd70        p.      POP      {r4-r6,pc}
        0x00000998:    eeb10ae1    ....    VSQRT.F32 s0,s3
        0x0000099c:    eeb40a40    ..@.    VCMP.F32 s0,s0
        0x000009a0:    eef1fa10    ....    VMRS     APSR_nzcv,FPSCR
        0x000009a4:    bf1c        ..      ITT      NE
        0x000009a6:    eeb00a61    ..a.    VMOVNE.F32 s0,s3
        0x000009aa:    f004f879    ..y.    BLNE     __hardfp_sqrtf ; 0x4aa0
        0x000009ae:    ee600a28    `.(.    VMUL.F32 s1,s0,s17
        0x000009b2:    ed940a03    ....    VLDR     s0,[r4,#0xc]
        0x000009b6:    ed941a01    ....    VLDR     s2,[r4,#4]
        0x000009ba:    ee301a41    0.A.    VSUB.F32 s2,s0,s2
        0x000009be:    ee200a88     ...    VMUL.F32 s0,s1,s16
        0x000009c2:    eec11a00    ....    VDIV.F32 s3,s2,s0
        0x000009c6:    edc51a00    ....    VSTR     s3,[r5,#0]
        0x000009ca:    ed941a02    ....    VLDR     s2,[r4,#8]
        0x000009ce:    edd41a06    ....    VLDR     s3,[r4,#0x18]
        0x000009d2:    ee311a21    1.!.    VADD.F32 s2,s2,s3
        0x000009d6:    eec11a00    ....    VDIV.F32 s3,s2,s0
        0x000009da:    edc51a01    ....    VSTR     s3,[r5,#4]
        0x000009de:    ed941a07    ....    VLDR     s2,[r4,#0x1c]
        0x000009e2:    edd41a05    ....    VLDR     s3,[r4,#0x14]
        0x000009e6:    ee311a21    1.!.    VADD.F32 s2,s2,s3
        0x000009ea:    eec11a00    ....    VDIV.F32 s3,s2,s0
        0x000009ee:    edc51a02    ....    VSTR     s3,[r5,#8]
        0x000009f2:    edc50a03    ....    VSTR     s1,[r5,#0xc]
        0x000009f6:    ecbd8b02    ....    VPOP     {d8}
        0x000009fa:    bd70        p.      POP      {r4-r6,pc}
    i.CompDCMGyroUpdate
    CompDCMGyroUpdate
        0x000009fc:    ed800a10    ....    VSTR     s0,[r0,#0x40]
        0x00000a00:    edc00a11    ....    VSTR     s1,[r0,#0x44]
        0x00000a04:    ed801a12    ....    VSTR     s2,[r0,#0x48]
        0x00000a08:    4770        pG      BX       lr
        0x00000a0a:    0000        ..      MOVS     r0,r0
    i.CompDCMInit
    CompDCMInit
        0x00000a0c:    eef72a00    ...*    VMOV.F32 s5,#1.00000000
        0x00000a10:    ed9f2a0c    ...*    VLDR     s4,[pc,#48] ; [0xa44] = 0
        0x00000a14:    edc02a00    ...*    VSTR     s5,[r0,#0]
        0x00000a18:    ed802a01    ...*    VSTR     s4,[r0,#4]
        0x00000a1c:    ed802a02    ...*    VSTR     s4,[r0,#8]
        0x00000a20:    ed802a03    ...*    VSTR     s4,[r0,#0xc]
        0x00000a24:    edc02a04    ...*    VSTR     s5,[r0,#0x10]
        0x00000a28:    ed802a05    ...*    VSTR     s4,[r0,#0x14]
        0x00000a2c:    ed802a06    ...*    VSTR     s4,[r0,#0x18]
        0x00000a30:    ed802a07    ...*    VSTR     s4,[r0,#0x1c]
        0x00000a34:    edc02a08    ...*    VSTR     s5,[r0,#0x20]
        0x00000a38:    f1000124    ..$.    ADD      r1,r0,#0x24
        0x00000a3c:    ec810a04    ....    VSTM     r1,{s0-s3}
        0x00000a40:    4770        pG      BX       lr
    $d
        0x00000a42:    0000        ..      DCW    0
        0x00000a44:    00000000    ....    DCD    0
    $t
    i.CompDCMMagnetoUpdate
    CompDCMMagnetoUpdate
        0x00000a48:    ed800a13    ....    VSTR     s0,[r0,#0x4c]
        0x00000a4c:    edc00a14    ....    VSTR     s1,[r0,#0x50]
        0x00000a50:    ed801a15    ....    VSTR     s2,[r0,#0x54]
        0x00000a54:    4770        pG      BX       lr
    i.CompDCMMatrixGet
    CompDCMMatrixGet
        0x00000a56:    ed900a00    ....    VLDR     s0,[r0,#0]
        0x00000a5a:    ed810a00    ....    VSTR     s0,[r1,#0]
        0x00000a5e:    ed900a01    ....    VLDR     s0,[r0,#4]
        0x00000a62:    ed810a01    ....    VSTR     s0,[r1,#4]
        0x00000a66:    ed900a02    ....    VLDR     s0,[r0,#8]
        0x00000a6a:    ed810a02    ....    VSTR     s0,[r1,#8]
        0x00000a6e:    ed900a03    ....    VLDR     s0,[r0,#0xc]
        0x00000a72:    ed810a03    ....    VSTR     s0,[r1,#0xc]
        0x00000a76:    ed900a04    ....    VLDR     s0,[r0,#0x10]
        0x00000a7a:    ed810a04    ....    VSTR     s0,[r1,#0x10]
        0x00000a7e:    ed900a05    ....    VLDR     s0,[r0,#0x14]
        0x00000a82:    ed810a05    ....    VSTR     s0,[r1,#0x14]
        0x00000a86:    ed900a06    ....    VLDR     s0,[r0,#0x18]
        0x00000a8a:    ed810a06    ....    VSTR     s0,[r1,#0x18]
        0x00000a8e:    ed900a07    ....    VLDR     s0,[r0,#0x1c]
        0x00000a92:    ed810a07    ....    VSTR     s0,[r1,#0x1c]
        0x00000a96:    ed900a08    ....    VLDR     s0,[r0,#0x20]
        0x00000a9a:    ed810a08    ....    VSTR     s0,[r1,#0x20]
        0x00000a9e:    4770        pG      BX       lr
    i.CompDCMStart
    CompDCMStart
        0x00000aa0:    b510        ..      PUSH     {r4,lr}
        0x00000aa2:    4604        .F      MOV      r4,r0
        0x00000aa4:    ed2d8b02    -...    VPUSH    {d8}
        0x00000aa8:    b08a        ..      SUB      sp,sp,#0x28
        0x00000aaa:    ed900a13    ....    VLDR     s0,[r0,#0x4c]
        0x00000aae:    466a        jF      MOV      r2,sp
        0x00000ab0:    ed8d0a00    ....    VSTR     s0,[sp,#0]
        0x00000ab4:    ed900a14    ....    VLDR     s0,[r0,#0x50]
        0x00000ab8:    a903        ..      ADD      r1,sp,#0xc
        0x00000aba:    ed8d0a01    ....    VSTR     s0,[sp,#4]
        0x00000abe:    ed900a15    ....    VLDR     s0,[r0,#0x54]
        0x00000ac2:    ed8d0a02    ....    VSTR     s0,[sp,#8]
        0x00000ac6:    ed900a0d    ....    VLDR     s0,[r0,#0x34]
        0x00000aca:    ed8d0a03    ....    VSTR     s0,[sp,#0xc]
        0x00000ace:    ed900a0e    ....    VLDR     s0,[r0,#0x38]
        0x00000ad2:    ed8d0a04    ....    VSTR     s0,[sp,#0x10]
        0x00000ad6:    ed900a0f    ....    VLDR     s0,[r0,#0x3c]
        0x00000ada:    a806        ..      ADD      r0,sp,#0x18
        0x00000adc:    ed8d0a05    ....    VSTR     s0,[sp,#0x14]
        0x00000ae0:    f003fdbb    ....    BL       VectorCrossProduct ; 0x465a
        0x00000ae4:    aa03        ..      ADD      r2,sp,#0xc
        0x00000ae6:    a906        ..      ADD      r1,sp,#0x18
        0x00000ae8:    4668        hF      MOV      r0,sp
        0x00000aea:    f003fdb6    ....    BL       VectorCrossProduct ; 0x465a
        0x00000aee:    4669        iF      MOV      r1,sp
        0x00000af0:    4608        .F      MOV      r0,r1
        0x00000af2:    f003fddd    ....    BL       VectorDotProduct ; 0x46b0
        0x00000af6:    eef10ac0    ....    VSQRT.F32 s1,s0
        0x00000afa:    eef40a60    ..`.    VCMP.F32 s1,s1
        0x00000afe:    eef1fa10    ....    VMRS     APSR_nzcv,FPSCR
        0x00000b02:    d003        ..      BEQ      0xb0c ; CompDCMStart + 108
        0x00000b04:    f003ffcc    ....    BL       __hardfp_sqrtf ; 0x4aa0
        0x00000b08:    eef00a40    ..@.    VMOV.F32 s1,s0
        0x00000b0c:    eeb78a00    ....    VMOV.F32 s16,#1.00000000
        0x00000b10:    4669        iF      MOV      r1,sp
        0x00000b12:    ee880a20    .. .    VDIV.F32 s0,s16,s1
        0x00000b16:    4608        .F      MOV      r0,r1
        0x00000b18:    f003fddd    ....    BL       VectorScale ; 0x46d6
        0x00000b1c:    a906        ..      ADD      r1,sp,#0x18
        0x00000b1e:    4608        .F      MOV      r0,r1
        0x00000b20:    f003fdc6    ....    BL       VectorDotProduct ; 0x46b0
        0x00000b24:    eef10ac0    ....    VSQRT.F32 s1,s0
        0x00000b28:    eef40a60    ..`.    VCMP.F32 s1,s1
        0x00000b2c:    eef1fa10    ....    VMRS     APSR_nzcv,FPSCR
        0x00000b30:    d003        ..      BEQ      0xb3a ; CompDCMStart + 154
        0x00000b32:    f003ffb5    ....    BL       __hardfp_sqrtf ; 0x4aa0
        0x00000b36:    eef00a40    ..@.    VMOV.F32 s1,s0
        0x00000b3a:    a906        ..      ADD      r1,sp,#0x18
        0x00000b3c:    ee880a20    .. .    VDIV.F32 s0,s16,s1
        0x00000b40:    4608        .F      MOV      r0,r1
        0x00000b42:    f003fdc8    ....    BL       VectorScale ; 0x46d6
        0x00000b46:    a903        ..      ADD      r1,sp,#0xc
        0x00000b48:    4608        .F      MOV      r0,r1
        0x00000b4a:    f003fdb1    ....    BL       VectorDotProduct ; 0x46b0
        0x00000b4e:    eef10ac0    ....    VSQRT.F32 s1,s0
        0x00000b52:    eef40a60    ..`.    VCMP.F32 s1,s1
        0x00000b56:    eef1fa10    ....    VMRS     APSR_nzcv,FPSCR
        0x00000b5a:    d003        ..      BEQ      0xb64 ; CompDCMStart + 196
        0x00000b5c:    f003ffa0    ....    BL       __hardfp_sqrtf ; 0x4aa0
        0x00000b60:    eef00a40    ..@.    VMOV.F32 s1,s0
        0x00000b64:    a903        ..      ADD      r1,sp,#0xc
        0x00000b66:    ee880a20    .. .    VDIV.F32 s0,s16,s1
        0x00000b6a:    4608        .F      MOV      r0,r1
        0x00000b6c:    f003fdb3    ....    BL       VectorScale ; 0x46d6
        0x00000b70:    ed9d0a00    ....    VLDR     s0,[sp,#0]
        0x00000b74:    ed840a00    ....    VSTR     s0,[r4,#0]
        0x00000b78:    ed9d0a01    ....    VLDR     s0,[sp,#4]
        0x00000b7c:    ed840a01    ....    VSTR     s0,[r4,#4]
        0x00000b80:    ed9d0a02    ....    VLDR     s0,[sp,#8]
        0x00000b84:    ed840a02    ....    VSTR     s0,[r4,#8]
        0x00000b88:    ed9d0a06    ....    VLDR     s0,[sp,#0x18]
        0x00000b8c:    ed840a03    ....    VSTR     s0,[r4,#0xc]
        0x00000b90:    ed9d0a07    ....    VLDR     s0,[sp,#0x1c]
        0x00000b94:    ed840a04    ....    VSTR     s0,[r4,#0x10]
        0x00000b98:    ed9d0a08    ....    VLDR     s0,[sp,#0x20]
        0x00000b9c:    ed840a05    ....    VSTR     s0,[r4,#0x14]
        0x00000ba0:    ed9d0a03    ....    VLDR     s0,[sp,#0xc]
        0x00000ba4:    ed840a06    ....    VSTR     s0,[r4,#0x18]
        0x00000ba8:    ed9d0a04    ....    VLDR     s0,[sp,#0x10]
        0x00000bac:    ed840a07    ....    VSTR     s0,[r4,#0x1c]
        0x00000bb0:    ed9d0a05    ....    VLDR     s0,[sp,#0x14]
        0x00000bb4:    ed840a08    ....    VSTR     s0,[r4,#0x20]
        0x00000bb8:    b00a        ..      ADD      sp,sp,#0x28
        0x00000bba:    ecbd8b02    ....    VPOP     {d8}
        0x00000bbe:    bd10        ..      POP      {r4,pc}
    i.CompDCMUpdate
    CompDCMUpdate
        0x00000bc0:    b510        ..      PUSH     {r4,lr}
        0x00000bc2:    4604        .F      MOV      r4,r0
        0x00000bc4:    ed2d8b06    -...    VPUSH    {d8-d10}
        0x00000bc8:    b090        ..      SUB      sp,sp,#0x40
        0x00000bca:    466a        jF      MOV      r2,sp
        0x00000bcc:    a903        ..      ADD      r1,sp,#0xc
        0x00000bce:    ed900a13    ....    VLDR     s0,[r0,#0x4c]
        0x00000bd2:    ed8d0a00    ....    VSTR     s0,[sp,#0]
        0x00000bd6:    ed900a14    ....    VLDR     s0,[r0,#0x50]
        0x00000bda:    ed8d0a01    ....    VSTR     s0,[sp,#4]
        0x00000bde:    ed900a15    ....    VLDR     s0,[r0,#0x54]
        0x00000be2:    ed8d0a02    ....    VSTR     s0,[sp,#8]
        0x00000be6:    ed900a0d    ....    VLDR     s0,[r0,#0x34]
        0x00000bea:    ed8d0a03    ....    VSTR     s0,[sp,#0xc]
        0x00000bee:    ed900a0e    ....    VLDR     s0,[r0,#0x38]
        0x00000bf2:    ed8d0a04    ....    VSTR     s0,[sp,#0x10]
        0x00000bf6:    ed900a0f    ....    VLDR     s0,[r0,#0x3c]
        0x00000bfa:    a80c        ..      ADD      r0,sp,#0x30
        0x00000bfc:    ed8d0a05    ....    VSTR     s0,[sp,#0x14]
        0x00000c00:    f003fd2b    ..+.    BL       VectorCrossProduct ; 0x465a
        0x00000c04:    aa03        ..      ADD      r2,sp,#0xc
        0x00000c06:    a90c        ..      ADD      r1,sp,#0x30
        0x00000c08:    4668        hF      MOV      r0,sp
        0x00000c0a:    f003fd26    ..&.    BL       VectorCrossProduct ; 0x465a
        0x00000c0e:    4669        iF      MOV      r1,sp
        0x00000c10:    4608        .F      MOV      r0,r1
        0x00000c12:    f003fd4d    ..M.    BL       VectorDotProduct ; 0x46b0
        0x00000c16:    eef10ac0    ....    VSQRT.F32 s1,s0
        0x00000c1a:    eef40a60    ..`.    VCMP.F32 s1,s1
        0x00000c1e:    eef1fa10    ....    VMRS     APSR_nzcv,FPSCR
        0x00000c22:    d003        ..      BEQ      0xc2c ; CompDCMUpdate + 108
        0x00000c24:    f003ff3c    ..<.    BL       __hardfp_sqrtf ; 0x4aa0
        0x00000c28:    eef00a40    ..@.    VMOV.F32 s1,s0
        0x00000c2c:    eeb78a00    ....    VMOV.F32 s16,#1.00000000
        0x00000c30:    4669        iF      MOV      r1,sp
        0x00000c32:    ee880a20    .. .    VDIV.F32 s0,s16,s1
        0x00000c36:    4608        .F      MOV      r0,r1
        0x00000c38:    f003fd4d    ..M.    BL       VectorScale ; 0x46d6
        0x00000c3c:    a903        ..      ADD      r1,sp,#0xc
        0x00000c3e:    4608        .F      MOV      r0,r1
        0x00000c40:    f003fd36    ..6.    BL       VectorDotProduct ; 0x46b0
        0x00000c44:    eef10ac0    ....    VSQRT.F32 s1,s0
        0x00000c48:    eef40a60    ..`.    VCMP.F32 s1,s1
        0x00000c4c:    eef1fa10    ....    VMRS     APSR_nzcv,FPSCR
        0x00000c50:    d003        ..      BEQ      0xc5a ; CompDCMUpdate + 154
        0x00000c52:    f003ff25    ..%.    BL       __hardfp_sqrtf ; 0x4aa0
        0x00000c56:    eef00a40    ..@.    VMOV.F32 s1,s0
        0x00000c5a:    a903        ..      ADD      r1,sp,#0xc
        0x00000c5c:    ee880a20    .. .    VDIV.F32 s0,s16,s1
        0x00000c60:    4608        .F      MOV      r0,r1
        0x00000c62:    f003fd38    ..8.    BL       VectorScale ; 0x46d6
        0x00000c66:    aa03        ..      ADD      r2,sp,#0xc
        0x00000c68:    f1040118    ....    ADD      r1,r4,#0x18
        0x00000c6c:    a806        ..      ADD      r0,sp,#0x18
        0x00000c6e:    f003fcf4    ....    BL       VectorCrossProduct ; 0x465a
        0x00000c72:    ed940a0a    ....    VLDR     s0,[r4,#0x28]
        0x00000c76:    a906        ..      ADD      r1,sp,#0x18
        0x00000c78:    a809        ..      ADD      r0,sp,#0x24
        0x00000c7a:    f003fd2c    ..,.    BL       VectorScale ; 0x46d6
        0x00000c7e:    edd40a10    ....    VLDR     s1,[r4,#0x40]
        0x00000c82:    ed940a09    ....    VLDR     s0,[r4,#0x24]
        0x00000c86:    a909        ..      ADD      r1,sp,#0x24
        0x00000c88:    aa06        ..      ADD      r2,sp,#0x18
        0x00000c8a:    ee201a80     ...    VMUL.F32 s2,s1,s0
        0x00000c8e:    edd40a0b    ....    VLDR     s1,[r4,#0x2c]
        0x00000c92:    4608        .F      MOV      r0,r1
        0x00000c94:    ee211a20    !. .    VMUL.F32 s2,s2,s1
        0x00000c98:    ed8d1a06    ....    VSTR     s2,[sp,#0x18]
        0x00000c9c:    ed941a11    ....    VLDR     s2,[r4,#0x44]
        0x00000ca0:    ee210a00    !...    VMUL.F32 s0,s2,s0
        0x00000ca4:    ee200a20     . .    VMUL.F32 s0,s0,s1
        0x00000ca8:    ed8d0a07    ....    VSTR     s0,[sp,#0x1c]
        0x00000cac:    ed940a12    ....    VLDR     s0,[r4,#0x48]
        0x00000cb0:    edd40a09    ....    VLDR     s1,[r4,#0x24]
        0x00000cb4:    ee200a20     . .    VMUL.F32 s0,s0,s1
        0x00000cb8:    edd40a0b    ....    VLDR     s1,[r4,#0x2c]
        0x00000cbc:    ee200a20     . .    VMUL.F32 s0,s0,s1
        0x00000cc0:    ed8d0a08    ....    VSTR     s0,[sp,#0x20]
        0x00000cc4:    f003fcb0    ....    BL       VectorAdd ; 0x4628
        0x00000cc8:    466a        jF      MOV      r2,sp
        0x00000cca:    4621        !F      MOV      r1,r4
        0x00000ccc:    a806        ..      ADD      r0,sp,#0x18
        0x00000cce:    f003fcc4    ....    BL       VectorCrossProduct ; 0x465a
        0x00000cd2:    a906        ..      ADD      r1,sp,#0x18
        0x00000cd4:    ed940a0c    ....    VLDR     s0,[r4,#0x30]
        0x00000cd8:    4608        .F      MOV      r0,r1
        0x00000cda:    f003fcfc    ....    BL       VectorScale ; 0x46d6
        0x00000cde:    a909        ..      ADD      r1,sp,#0x24
        0x00000ce0:    aa06        ..      ADD      r2,sp,#0x18
        0x00000ce2:    4608        .F      MOV      r0,r1
        0x00000ce4:    f003fca0    ....    BL       VectorAdd ; 0x4628
        0x00000ce8:    4622        "F      MOV      r2,r4
        0x00000cea:    a909        ..      ADD      r1,sp,#0x24
        0x00000cec:    4668        hF      MOV      r0,sp
        0x00000cee:    f003fcb4    ....    BL       VectorCrossProduct ; 0x465a
        0x00000cf2:    4621        !F      MOV      r1,r4
        0x00000cf4:    466a        jF      MOV      r2,sp
        0x00000cf6:    4608        .F      MOV      r0,r1
        0x00000cf8:    f003fc96    ....    BL       VectorAdd ; 0x4628
        0x00000cfc:    f1040218    ....    ADD      r2,r4,#0x18
        0x00000d00:    a909        ..      ADD      r1,sp,#0x24
        0x00000d02:    a803        ..      ADD      r0,sp,#0xc
        0x00000d04:    f003fca9    ....    BL       VectorCrossProduct ; 0x465a
        0x00000d08:    f1040118    ....    ADD      r1,r4,#0x18
        0x00000d0c:    aa03        ..      ADD      r2,sp,#0xc
        0x00000d0e:    4608        .F      MOV      r0,r1
        0x00000d10:    f003fc8a    ....    BL       VectorAdd ; 0x4628
        0x00000d14:    f1040118    ....    ADD      r1,r4,#0x18
        0x00000d18:    4620         F      MOV      r0,r4
        0x00000d1a:    f003fcc9    ....    BL       VectorDotProduct ; 0x46b0
        0x00000d1e:    eefe0a00    ....    VMOV.F32 s1,#-0.50000000
        0x00000d22:    4621        !F      MOV      r1,r4
        0x00000d24:    ee608a20    `. .    VMUL.F32 s17,s0,s1
        0x00000d28:    4668        hF      MOV      r0,sp
        0x00000d2a:    eeb00a68    ..h.    VMOV.F32 s0,s17
        0x00000d2e:    f003fcd2    ....    BL       VectorScale ; 0x46d6
        0x00000d32:    eeb00a68    ..h.    VMOV.F32 s0,s17
        0x00000d36:    f1040118    ....    ADD      r1,r4,#0x18
        0x00000d3a:    a803        ..      ADD      r0,sp,#0xc
        0x00000d3c:    f003fccb    ....    BL       VectorScale ; 0x46d6
        0x00000d40:    4621        !F      MOV      r1,r4
        0x00000d42:    aa03        ..      ADD      r2,sp,#0xc
        0x00000d44:    4608        .F      MOV      r0,r1
        0x00000d46:    f003fc6f    ..o.    BL       VectorAdd ; 0x4628
        0x00000d4a:    f1040118    ....    ADD      r1,r4,#0x18
        0x00000d4e:    466a        jF      MOV      r2,sp
        0x00000d50:    4608        .F      MOV      r0,r1
        0x00000d52:    f003fc69    ..i.    BL       VectorAdd ; 0x4628
        0x00000d56:    4621        !F      MOV      r1,r4
        0x00000d58:    4608        .F      MOV      r0,r1
        0x00000d5a:    f003fca9    ....    BL       VectorDotProduct ; 0x46b0
        0x00000d5e:    ee100a10    ....    VMOV     r0,s0
        0x00000d62:    f7fffbf0    ....    BL       __aeabi_f2d ; 0x546
        0x00000d66:    ed9f9b4a    ..J.    VLDR     d9,[pc,#296] ; [0xe90] = 0
        0x00000d6a:    ec532b19    S..+    VMOV     r2,r3,d9
        0x00000d6e:    f7fffb5f    .._.    BL       __aeabi_drsub ; 0x430
        0x00000d72:    ed9fab49    ..I.    VLDR     d10,[pc,#292] ; [0xe98] = 0
        0x00000d76:    ec532b1a    S..+    VMOV     r2,r3,d10
        0x00000d7a:    f7fffb5c    ..\.    BL       __aeabi_dmul ; 0x436
        0x00000d7e:    f7fffbf5    ....    BL       __aeabi_d2f ; 0x56c
        0x00000d82:    ee000a10    ....    VMOV     s0,r0
        0x00000d86:    4621        !F      MOV      r1,r4
        0x00000d88:    4608        .F      MOV      r0,r1
        0x00000d8a:    f003fca4    ....    BL       VectorScale ; 0x46d6
        0x00000d8e:    f1040118    ....    ADD      r1,r4,#0x18
        0x00000d92:    4608        .F      MOV      r0,r1
        0x00000d94:    f003fc8c    ....    BL       VectorDotProduct ; 0x46b0
        0x00000d98:    ee100a10    ....    VMOV     r0,s0
        0x00000d9c:    f7fffbd3    ....    BL       __aeabi_f2d ; 0x546
        0x00000da0:    ec532b19    S..+    VMOV     r2,r3,d9
        0x00000da4:    f7fffb44    ..D.    BL       __aeabi_drsub ; 0x430
        0x00000da8:    ec532b1a    S..+    VMOV     r2,r3,d10
        0x00000dac:    f7fffb43    ..C.    BL       __aeabi_dmul ; 0x436
        0x00000db0:    f7fffbdc    ....    BL       __aeabi_d2f ; 0x56c
        0x00000db4:    ee000a10    ....    VMOV     s0,r0
        0x00000db8:    f1040118    ....    ADD      r1,r4,#0x18
        0x00000dbc:    4608        .F      MOV      r0,r1
        0x00000dbe:    f003fc8a    ....    BL       VectorScale ; 0x46d6
        0x00000dc2:    4622        "F      MOV      r2,r4
        0x00000dc4:    f1040118    ....    ADD      r1,r4,#0x18
        0x00000dc8:    f104000c    ....    ADD      r0,r4,#0xc
        0x00000dcc:    f003fc45    ..E.    BL       VectorCrossProduct ; 0x465a
        0x00000dd0:    6820         h      LDR      r0,[r4,#0]
        0x00000dd2:    f0204000     ..@    BIC      r0,r0,#0x80000000
        0x00000dd6:    f1c040ff    ...@    RSB      r0,r0,#0x7f800000
        0x00000dda:    0fc0        ..      LSRS     r0,r0,#31
        0x00000ddc:    d137        7.      BNE      0xe4e ; CompDCMUpdate + 654
        0x00000dde:    6860        `h      LDR      r0,[r4,#4]
        0x00000de0:    f0204000     ..@    BIC      r0,r0,#0x80000000
        0x00000de4:    f1c040ff    ...@    RSB      r0,r0,#0x7f800000
        0x00000de8:    0fc0        ..      LSRS     r0,r0,#31
        0x00000dea:    d130        0.      BNE      0xe4e ; CompDCMUpdate + 654
        0x00000dec:    68a0        .h      LDR      r0,[r4,#8]
        0x00000dee:    f0204000     ..@    BIC      r0,r0,#0x80000000
        0x00000df2:    f1c040ff    ...@    RSB      r0,r0,#0x7f800000
        0x00000df6:    0fc0        ..      LSRS     r0,r0,#31
        0x00000df8:    d129        ).      BNE      0xe4e ; CompDCMUpdate + 654
        0x00000dfa:    68e0        .h      LDR      r0,[r4,#0xc]
        0x00000dfc:    f0204000     ..@    BIC      r0,r0,#0x80000000
        0x00000e00:    f1c040ff    ...@    RSB      r0,r0,#0x7f800000
        0x00000e04:    0fc0        ..      LSRS     r0,r0,#31
        0x00000e06:    d122        ".      BNE      0xe4e ; CompDCMUpdate + 654
        0x00000e08:    6920         i      LDR      r0,[r4,#0x10]
        0x00000e0a:    f0204000     ..@    BIC      r0,r0,#0x80000000
        0x00000e0e:    f1c040ff    ...@    RSB      r0,r0,#0x7f800000
        0x00000e12:    0fc0        ..      LSRS     r0,r0,#31
        0x00000e14:    d11b        ..      BNE      0xe4e ; CompDCMUpdate + 654
        0x00000e16:    6960        `i      LDR      r0,[r4,#0x14]
        0x00000e18:    f0204000     ..@    BIC      r0,r0,#0x80000000
        0x00000e1c:    f1c040ff    ...@    RSB      r0,r0,#0x7f800000
        0x00000e20:    0fc0        ..      LSRS     r0,r0,#31
        0x00000e22:    d114        ..      BNE      0xe4e ; CompDCMUpdate + 654
        0x00000e24:    69a0        .i      LDR      r0,[r4,#0x18]
        0x00000e26:    f0204000     ..@    BIC      r0,r0,#0x80000000
        0x00000e2a:    f1c040ff    ...@    RSB      r0,r0,#0x7f800000
        0x00000e2e:    0fc0        ..      LSRS     r0,r0,#31
        0x00000e30:    d10d        ..      BNE      0xe4e ; CompDCMUpdate + 654
        0x00000e32:    69e0        .i      LDR      r0,[r4,#0x1c]
        0x00000e34:    f0204000     ..@    BIC      r0,r0,#0x80000000
        0x00000e38:    f1c040ff    ...@    RSB      r0,r0,#0x7f800000
        0x00000e3c:    0fc0        ..      LSRS     r0,r0,#31
        0x00000e3e:    d106        ..      BNE      0xe4e ; CompDCMUpdate + 654
        0x00000e40:    6a20         j      LDR      r0,[r4,#0x20]
        0x00000e42:    f0204000     ..@    BIC      r0,r0,#0x80000000
        0x00000e46:    f1c040ff    ...@    RSB      r0,r0,#0x7f800000
        0x00000e4a:    0fc0        ..      LSRS     r0,r0,#31
        0x00000e4c:    d000        ..      BEQ      0xe50 ; CompDCMUpdate + 656
        0x00000e4e:    2001        .       MOVS     r0,#1
        0x00000e50:    2800        .(      CMP      r0,#0
        0x00000e52:    bf02        ..      ITTT     EQ
        0x00000e54:    b010        ..      ADDEQ    sp,sp,#0x40
        0x00000e56:    ecbd8b06    ....    VPOPEQ   {d8-d10}
        0x00000e5a:    bd10        ..      POPEQ    {r4,pc}
        0x00000e5c:    ed848a00    ....    VSTR     s16,[r4,#0]
        0x00000e60:    ed9f0a0f    ....    VLDR     s0,[pc,#60] ; [0xea0] = 0
        0x00000e64:    ed840a01    ....    VSTR     s0,[r4,#4]
        0x00000e68:    ed840a02    ....    VSTR     s0,[r4,#8]
        0x00000e6c:    ed840a03    ....    VSTR     s0,[r4,#0xc]
        0x00000e70:    ed848a04    ....    VSTR     s16,[r4,#0x10]
        0x00000e74:    ed840a05    ....    VSTR     s0,[r4,#0x14]
        0x00000e78:    ed840a06    ....    VSTR     s0,[r4,#0x18]
        0x00000e7c:    ed840a07    ....    VSTR     s0,[r4,#0x1c]
        0x00000e80:    ed848a08    ....    VSTR     s16,[r4,#0x20]
        0x00000e84:    b010        ..      ADD      sp,sp,#0x40
        0x00000e86:    ecbd8b06    ....    VPOP     {d8-d10}
        0x00000e8a:    bd10        ..      POP      {r4,pc}
    $d
        0x00000e8c:    00000000    ....    DCD    0
        0x00000e90:    00000000    ....    DCD    0
        0x00000e94:    40080000    ...@    DCD    1074266112
        0x00000e98:    00000000    ....    DCD    0
        0x00000e9c:    3fe00000    ...?    DCD    1071644672
        0x00000ea0:    00000000    ....    DCD    0
    $t
    i.ConfigureUART
    ConfigureUART
        0x00000ea4:    b510        ..      PUSH     {r4,lr}
        0x00000ea6:    f04f7080    O..p    MOV      r0,#0x1000000
        0x00000eaa:    6c40        @l      LDR      r0,[r0,#0x44]
        0x00000eac:    6981        .i      LDR      r1,[r0,#0x18]
        0x00000eae:    4814        .H      LDR      r0,[pc,#80] ; [0xf00] = 0xf0000800
        0x00000eb0:    4788        .G      BLX      r1
        0x00000eb2:    f04f7080    O..p    MOV      r0,#0x1000000
        0x00000eb6:    6c40        @l      LDR      r0,[r0,#0x44]
        0x00000eb8:    6981        .i      LDR      r1,[r0,#0x18]
        0x00000eba:    4812        .H      LDR      r0,[pc,#72] ; [0xf04] = 0xf0001800
        0x00000ebc:    4788        .G      BLX      r1
        0x00000ebe:    f04f7080    O..p    MOV      r0,#0x1000000
        0x00000ec2:    6a00        .j      LDR      r0,[r0,#0x20]
        0x00000ec4:    6e81        .n      LDR      r1,[r0,#0x68]
        0x00000ec6:    2001        .       MOVS     r0,#1
        0x00000ec8:    4788        .G      BLX      r1
        0x00000eca:    f04f7080    O..p    MOV      r0,#0x1000000
        0x00000ece:    6a00        .j      LDR      r0,[r0,#0x20]
        0x00000ed0:    6e81        .n      LDR      r1,[r0,#0x68]
        0x00000ed2:    f2404001    @..@    MOV      r0,#0x401
        0x00000ed6:    4788        .G      BLX      r1
        0x00000ed8:    f04f7080    O..p    MOV      r0,#0x1000000
        0x00000edc:    6a00        .j      LDR      r0,[r0,#0x20]
        0x00000ede:    2103        .!      MOVS     r1,#3
        0x00000ee0:    6d42        Bm      LDR      r2,[r0,#0x54]
        0x00000ee2:    f04f2040    O.@     MOV      r0,#0x40004000
        0x00000ee6:    4790        .G      BLX      r2
        0x00000ee8:    2105        .!      MOVS     r1,#5
        0x00000eea:    4807        .H      LDR      r0,[pc,#28] ; [0xf08] = 0x4000c000
        0x00000eec:    f002feaf    ....    BL       UARTClockSourceSet ; 0x3c4e
        0x00000ef0:    4a06        .J      LDR      r2,[pc,#24] ; [0xf0c] = 0xf42400
        0x00000ef2:    f44f31e1    O..1    MOV      r1,#0x1c200
        0x00000ef6:    2000        .       MOVS     r0,#0
        0x00000ef8:    f003f8a8    ....    BL       UARTStdioConfig ; 0x404c
        0x00000efc:    bd10        ..      POP      {r4,pc}
    $d
        0x00000efe:    0000        ..      DCW    0
        0x00000f00:    f0000800    ....    DCD    4026533888
        0x00000f04:    f0001800    ....    DCD    4026537984
        0x00000f08:    4000c000    ...@    DCD    1073790976
        0x00000f0c:    00f42400    .$..    DCD    16000000
    $t
    i.GPIOADCTriggerDisable
    GPIOADCTriggerDisable
        0x00000f10:    f50062a6    ...b    ADD      r2,r0,#0x530
        0x00000f14:    f8d00530    ..0.    LDR      r0,[r0,#0x530]
        0x00000f18:    4388        .C      BICS     r0,r0,r1
        0x00000f1a:    6010        .`      STR      r0,[r2,#0]
        0x00000f1c:    4770        pG      BX       lr
    i.GPIOADCTriggerEnable
    GPIOADCTriggerEnable
        0x00000f1e:    f50062a6    ...b    ADD      r2,r0,#0x530
        0x00000f22:    f8d00530    ..0.    LDR      r0,[r0,#0x530]
        0x00000f26:    4308        .C      ORRS     r0,r0,r1
        0x00000f28:    6010        .`      STR      r0,[r2,#0]
        0x00000f2a:    4770        pG      BX       lr
    i.GPIODMATriggerDisable
    GPIODMATriggerDisable
        0x00000f2c:    f2005234    ..4R    ADD      r2,r0,#0x534
        0x00000f30:    f8d00534    ..4.    LDR      r0,[r0,#0x534]
        0x00000f34:    4388        .C      BICS     r0,r0,r1
        0x00000f36:    6010        .`      STR      r0,[r2,#0]
        0x00000f38:    4770        pG      BX       lr
    i.GPIODMATriggerEnable
    GPIODMATriggerEnable
        0x00000f3a:    f2005234    ..4R    ADD      r2,r0,#0x534
        0x00000f3e:    f8d00534    ..4.    LDR      r0,[r0,#0x534]
        0x00000f42:    4308        .C      ORRS     r0,r0,r1
        0x00000f44:    6010        .`      STR      r0,[r2,#0]
        0x00000f46:    4770        pG      BX       lr
    i.GPIODirModeGet
    GPIODirModeGet
        0x00000f48:    2201        ."      MOVS     r2,#1
        0x00000f4a:    fa02f101    ....    LSL      r1,r2,r1
        0x00000f4e:    f8d03400    ...4    LDR      r3,[r0,#0x400]
        0x00000f52:    b2c9        ..      UXTB     r1,r1
        0x00000f54:    f8d02420    .. $    LDR      r2,[r0,#0x420]
        0x00000f58:    ea130001    ....    ANDS     r0,r3,r1
        0x00000f5c:    bf18        ..      IT       NE
        0x00000f5e:    2001        .       MOVNE    r0,#1
        0x00000f60:    4011        .@      ANDS     r1,r1,r2
        0x00000f62:    bf18        ..      IT       NE
        0x00000f64:    2102        .!      MOVNE    r1,#2
        0x00000f66:    4308        .C      ORRS     r0,r0,r1
        0x00000f68:    4770        pG      BX       lr
    i.GPIODirModeSet
    GPIODirModeSet
        0x00000f6a:    f8d03400    ...4    LDR      r3,[r0,#0x400]
        0x00000f6e:    f0120f01    ....    TST      r2,#1
        0x00000f72:    bf14        ..      ITE      NE
        0x00000f74:    430b        .C      ORRNE    r3,r3,r1
        0x00000f76:    438b        .C      BICEQ    r3,r3,r1
        0x00000f78:    f8c03400    ...4    STR      r3,[r0,#0x400]
        0x00000f7c:    f0120f02    ....    TST      r2,#2
        0x00000f80:    f8d02420    .. $    LDR      r2,[r0,#0x420]
        0x00000f84:    bf14        ..      ITE      NE
        0x00000f86:    4311        .C      ORRNE    r1,r1,r2
        0x00000f88:    ea220101    "...    BICEQ    r1,r2,r1
        0x00000f8c:    f8c01420    .. .    STR      r1,[r0,#0x420]
        0x00000f90:    4770        pG      BX       lr
    i.GPIOIntClear
    GPIOIntClear
        0x00000f92:    f8c0141c    ....    STR      r1,[r0,#0x41c]
        0x00000f96:    4770        pG      BX       lr
    i.GPIOIntDisable
    GPIOIntDisable
        0x00000f98:    f5006282    ...b    ADD      r2,r0,#0x410
        0x00000f9c:    f8d00410    ....    LDR      r0,[r0,#0x410]
        0x00000fa0:    4388        .C      BICS     r0,r0,r1
        0x00000fa2:    6010        .`      STR      r0,[r2,#0]
        0x00000fa4:    4770        pG      BX       lr
    i.GPIOIntEnable
    GPIOIntEnable
        0x00000fa6:    f5006282    ...b    ADD      r2,r0,#0x410
        0x00000faa:    f8d00410    ....    LDR      r0,[r0,#0x410]
        0x00000fae:    4308        .C      ORRS     r0,r0,r1
        0x00000fb0:    6010        .`      STR      r0,[r2,#0]
        0x00000fb2:    4770        pG      BX       lr
    i.GPIOIntRegister
    GPIOIntRegister
        0x00000fb4:    4a12        .J      LDR      r2,[pc,#72] ; [0x1000] = 0x400fe000
        0x00000fb6:    b510        ..      PUSH     {r4,lr}
        0x00000fb8:    4b10        .K      LDR      r3,[pc,#64] ; [0xffc] = 0x54ac
        0x00000fba:    6812        .h      LDR      r2,[r2,#0]
        0x00000fbc:    f04f0c18    O...    MOV      r12,#0x18
        0x00000fc0:    4c10        .L      LDR      r4,[pc,#64] ; [0x1004] = 0x70ff0000
        0x00000fc2:    4022        "@      ANDS     r2,r2,r4
        0x00000fc4:    f1a25480    ...T    SUB      r4,r2,#0x10000000
        0x00000fc8:    f5b42420    .. $    SUBS     r4,r4,#0xa0000
        0x00000fcc:    bf08        ..      IT       EQ
        0x00000fce:    4b0e        .K      LDREQ    r3,[pc,#56] ; [0x1008] = 0x556c
        0x00000fd0:    2200        ."      MOVS     r2,#0
        0x00000fd2:    f8534032    S.2@    LDR      r4,[r3,r2,LSL #3]
        0x00000fd6:    4284        .B      CMP      r4,r0
        0x00000fd8:    d103        ..      BNE      0xfe2 ; GPIOIntRegister + 46
        0x00000fda:    eb0300c2    ....    ADD      r0,r3,r2,LSL #3
        0x00000fde:    6844        Dh      LDR      r4,[r0,#4]
        0x00000fe0:    e003        ..      B        0xfea ; GPIOIntRegister + 54
        0x00000fe2:    1c52        R.      ADDS     r2,r2,#1
        0x00000fe4:    4562        bE      CMP      r2,r12
        0x00000fe6:    d3f4        ..      BCC      0xfd2 ; GPIOIntRegister + 30
        0x00000fe8:    2400        .$      MOVS     r4,#0
        0x00000fea:    4620         F      MOV      r0,r4
        0x00000fec:    f001fabc    ....    BL       IntRegister ; 0x2568
        0x00000ff0:    4620         F      MOV      r0,r4
        0x00000ff2:    e8bd4010    ...@    POP      {r4,lr}
        0x00000ff6:    f001b99b    ....    B.W      IntEnable ; 0x2330
    $d
        0x00000ffa:    0000        ..      DCW    0
        0x00000ffc:    000054ac    .T..    DCD    21676
        0x00001000:    400fe000    ...@    DCD    1074782208
        0x00001004:    70ff0000    ...p    DCD    1895759872
        0x00001008:    0000556c    lU..    DCD    21868
    $t
    i.GPIOIntStatus
    GPIOIntStatus
        0x0000100c:    2900        .)      CMP      r1,#0
        0x0000100e:    bf14        ..      ITE      NE
        0x00001010:    f8d00418    ....    LDRNE    r0,[r0,#0x418]
        0x00001014:    f8d00414    ....    LDREQ    r0,[r0,#0x414]
        0x00001018:    4770        pG      BX       lr
    i.GPIOIntTypeGet
    GPIOIntTypeGet
        0x0000101a:    b410        ..      PUSH     {r4}
        0x0000101c:    2201        ."      MOVS     r2,#1
        0x0000101e:    fa02f101    ....    LSL      r1,r2,r1
        0x00001022:    f8d04408    ...D    LDR      r4,[r0,#0x408]
        0x00001026:    b2c9        ..      UXTB     r1,r1
        0x00001028:    f8d02404    ...$    LDR      r2,[r0,#0x404]
        0x0000102c:    f8d0c40c    ....    LDR      r12,[r0,#0x40c]
        0x00001030:    f8d03538    ..85    LDR      r3,[r0,#0x538]
        0x00001034:    ea140001    ....    ANDS     r0,r4,r1
        0x00001038:    bf18        ..      IT       NE
        0x0000103a:    2001        .       MOVNE    r0,#1
        0x0000103c:    400a        .@      ANDS     r2,r2,r1
        0x0000103e:    bf18        ..      IT       NE
        0x00001040:    2202        ."      MOVNE    r2,#2
        0x00001042:    4302        .C      ORRS     r2,r2,r0
        0x00001044:    ea1c0001    ....    ANDS     r0,r12,r1
        0x00001048:    bf18        ..      IT       NE
        0x0000104a:    2004        .       MOVNE    r0,#4
        0x0000104c:    4310        .C      ORRS     r0,r0,r2
        0x0000104e:    f0030101    ....    AND      r1,r3,#1
        0x00001052:    4308        .C      ORRS     r0,r0,r1
        0x00001054:    bf18        ..      IT       NE
        0x00001056:    f44f3080    O..0    MOVNE    r0,#0x10000
        0x0000105a:    bc10        ..      POP      {r4}
        0x0000105c:    4770        pG      BX       lr
    i.GPIOIntTypeSet
    GPIOIntTypeSet
        0x0000105e:    f8d03408    ...4    LDR      r3,[r0,#0x408]
        0x00001062:    f0120f01    ....    TST      r2,#1
        0x00001066:    bf14        ..      ITE      NE
        0x00001068:    430b        .C      ORRNE    r3,r3,r1
        0x0000106a:    438b        .C      BICEQ    r3,r3,r1
        0x0000106c:    f8c03408    ...4    STR      r3,[r0,#0x408]
        0x00001070:    f8d03404    ...4    LDR      r3,[r0,#0x404]
        0x00001074:    f0120f02    ....    TST      r2,#2
        0x00001078:    bf14        ..      ITE      NE
        0x0000107a:    430b        .C      ORRNE    r3,r3,r1
        0x0000107c:    438b        .C      BICEQ    r3,r3,r1
        0x0000107e:    f8c03404    ...4    STR      r3,[r0,#0x404]
        0x00001082:    f8d0340c    ...4    LDR      r3,[r0,#0x40c]
        0x00001086:    f0120f04    ....    TST      r2,#4
        0x0000108a:    bf14        ..      ITE      NE
        0x0000108c:    4319        .C      ORRNE    r1,r1,r3
        0x0000108e:    ea230101    #...    BICEQ    r1,r3,r1
        0x00001092:    f8c0140c    ....    STR      r1,[r0,#0x40c]
        0x00001096:    f8d01538    ..8.    LDR      r1,[r0,#0x538]
        0x0000109a:    f4123f80    ...?    TST      r2,#0x10000
        0x0000109e:    bf14        ..      ITE      NE
        0x000010a0:    f0410101    A...    ORRNE    r1,r1,#1
        0x000010a4:    f0210101    !...    BICEQ    r1,r1,#1
        0x000010a8:    f8c01538    ..8.    STR      r1,[r0,#0x538]
        0x000010ac:    4770        pG      BX       lr
        0x000010ae:    0000        ..      MOVS     r0,r0
    i.GPIOIntUnregister
    GPIOIntUnregister
        0x000010b0:    4912        .I      LDR      r1,[pc,#72] ; [0x10fc] = 0x400fe000
        0x000010b2:    b510        ..      PUSH     {r4,lr}
        0x000010b4:    4a10        .J      LDR      r2,[pc,#64] ; [0x10f8] = 0x54ac
        0x000010b6:    6809        .h      LDR      r1,[r1,#0]
        0x000010b8:    2318        .#      MOVS     r3,#0x18
        0x000010ba:    f8dfc044    ..D.    LDR      r12,[pc,#68] ; [0x1100] = 0x70ff0000
        0x000010be:    ea01010c    ....    AND      r1,r1,r12
        0x000010c2:    f1a15c80    ...\    SUB      r12,r1,#0x10000000
        0x000010c6:    f5bc2c20    .. ,    SUBS     r12,r12,#0xa0000
        0x000010ca:    bf08        ..      IT       EQ
        0x000010cc:    4a0d        .J      LDREQ    r2,[pc,#52] ; [0x1104] = 0x556c
        0x000010ce:    2100        .!      MOVS     r1,#0
        0x000010d0:    f852c031    R.1.    LDR      r12,[r2,r1,LSL #3]
        0x000010d4:    4584        .E      CMP      r12,r0
        0x000010d6:    d103        ..      BNE      0x10e0 ; GPIOIntUnregister + 48
        0x000010d8:    eb0200c1    ....    ADD      r0,r2,r1,LSL #3
        0x000010dc:    6844        Dh      LDR      r4,[r0,#4]
        0x000010de:    e003        ..      B        0x10e8 ; GPIOIntUnregister + 56
        0x000010e0:    1c49        I.      ADDS     r1,r1,#1
        0x000010e2:    4299        .B      CMP      r1,r3
        0x000010e4:    d3f4        ..      BCC      0x10d0 ; GPIOIntUnregister + 32
        0x000010e6:    2400        .$      MOVS     r4,#0
        0x000010e8:    4620         F      MOV      r0,r4
        0x000010ea:    f001f8ef    ....    BL       IntDisable ; 0x22cc
        0x000010ee:    4620         F      MOV      r0,r4
        0x000010f0:    e8bd4010    ...@    POP      {r4,lr}
        0x000010f4:    f001ba58    ..X.    B.W      IntUnregister ; 0x25a8
    $d
        0x000010f8:    000054ac    .T..    DCD    21676
        0x000010fc:    400fe000    ...@    DCD    1074782208
        0x00001100:    70ff0000    ...p    DCD    1895759872
        0x00001104:    0000556c    lU..    DCD    21868
    $t
    i.GPIOPadConfigGet
    GPIOPadConfigGet
        0x00001108:    b430        0.      PUSH     {r4,r5}
        0x0000110a:    f04f0c01    O...    MOV      r12,#1
        0x0000110e:    fa0cf101    ....    LSL      r1,r12,r1
        0x00001112:    f8d0c500    ....    LDR      r12,[r0,#0x500]
        0x00001116:    b2c9        ..      UXTB     r1,r1
        0x00001118:    ea1c0c01    ....    ANDS     r12,r12,r1
        0x0000111c:    bf18        ..      IT       NE
        0x0000111e:    f04f0c01    O...    MOVNE    r12,#1
        0x00001122:    f8d04504    ...E    LDR      r4,[r0,#0x504]
        0x00001126:    400c        .@      ANDS     r4,r4,r1
        0x00001128:    bf18        ..      IT       NE
        0x0000112a:    2402        .$      MOVNE    r4,#2
        0x0000112c:    ea44040c    D...    ORR      r4,r4,r12
        0x00001130:    f8d0c508    ....    LDR      r12,[r0,#0x508]
        0x00001134:    ea1c0c01    ....    ANDS     r12,r12,r1
        0x00001138:    bf18        ..      IT       NE
        0x0000113a:    f04f0c04    O...    MOVNE    r12,#4
        0x0000113e:    ea4c0404    L...    ORR      r4,r12,r4
        0x00001142:    f8d0c518    ....    LDR      r12,[r0,#0x518]
        0x00001146:    ea1c0c01    ....    ANDS     r12,r12,r1
        0x0000114a:    bf18        ..      IT       NE
        0x0000114c:    f04f0c08    O...    MOVNE    r12,#8
        0x00001150:    ea4c0404    L...    ORR      r4,r12,r4
        0x00001154:    f8d0c53c    ..<.    LDR      r12,[r0,#0x53c]
        0x00001158:    ea1c0c01    ....    ANDS     r12,r12,r1
        0x0000115c:    bf18        ..      IT       NE
        0x0000115e:    f04f0c10    O...    MOVNE    r12,#0x10
        0x00001162:    ea4c0c04    L...    ORR      r12,r12,r4
        0x00001166:    f8d04fc4    ...O    LDR      r4,[r0,#0xfc4]
        0x0000116a:    004d        M.      LSLS     r5,r1,#1
        0x0000116c:    40ec        .@      LSRS     r4,r4,r5
        0x0000116e:    f0040403    ....    AND      r4,r4,#3
        0x00001172:    ea4c1c44    L.D.    ORR      r12,r12,r4,LSL #5
        0x00001176:    f8c2c000    ....    STR      r12,[r2,#0]
        0x0000117a:    f8d0250c    ...%    LDR      r2,[r0,#0x50c]
        0x0000117e:    400a        .@      ANDS     r2,r2,r1
        0x00001180:    bf18        ..      IT       NE
        0x00001182:    2201        ."      MOVNE    r2,#1
        0x00001184:    f8d0c510    ....    LDR      r12,[r0,#0x510]
        0x00001188:    ea1c0c01    ....    ANDS     r12,r12,r1
        0x0000118c:    bf18        ..      IT       NE
        0x0000118e:    f04f0c02    O...    MOVNE    r12,#2
        0x00001192:    ea4c0c02    L...    ORR      r12,r12,r2
        0x00001196:    f8d02514    ...%    LDR      r2,[r0,#0x514]
        0x0000119a:    400a        .@      ANDS     r2,r2,r1
        0x0000119c:    bf18        ..      IT       NE
        0x0000119e:    2204        ."      MOVNE    r2,#4
        0x000011a0:    ea420c0c    B...    ORR      r12,r2,r12
        0x000011a4:    f8d0251c    ...%    LDR      r2,[r0,#0x51c]
        0x000011a8:    400a        .@      ANDS     r2,r2,r1
        0x000011aa:    bf18        ..      IT       NE
        0x000011ac:    2208        ."      MOVNE    r2,#8
        0x000011ae:    ea42020c    B...    ORR      r2,r2,r12
        0x000011b2:    f8d0c540    ..@.    LDR      r12,[r0,#0x540]
        0x000011b6:    ea1c0f01    ....    TST      r12,r1
        0x000011ba:    d008        ..      BEQ      0x11ce ; GPIOPadConfigGet + 198
        0x000011bc:    f8d00544    ..D.    LDR      r0,[r0,#0x544]
        0x000011c0:    4208        .B      TST      r0,r1
        0x000011c2:    bf0c        ..      ITE      EQ
        0x000011c4:    f44f7080    O..p    MOVEQ    r0,#0x100
        0x000011c8:    f44f7000    O..p    MOVNE    r0,#0x200
        0x000011cc:    4302        .C      ORRS     r2,r2,r0
        0x000011ce:    601a        .`      STR      r2,[r3,#0]
        0x000011d0:    bc30        0.      POP      {r4,r5}
        0x000011d2:    4770        pG      BX       lr
    i.GPIOPadConfigSet
    GPIOPadConfigSet
        0x000011d4:    e92d07f0    -...    PUSH     {r4-r10}
        0x000011d8:    2701        .'      MOVS     r7,#1
        0x000011da:    f04f0c00    O...    MOV      r12,#0
        0x000011de:    2603        .&      MOVS     r6,#3
        0x000011e0:    f3c21841    ..A.    UBFX     r8,r2,#5,#2
        0x000011e4:    f60074c4    ...t    ADD      r4,r0,#0xfc4
        0x000011e8:    fa07f50c    ....    LSL      r5,r7,r12
        0x000011ec:    420d        .B      TST      r5,r1
        0x000011ee:    d010        ..      BEQ      0x1212 ; GPIOPadConfigSet + 62
        0x000011f0:    f8d09fc4    ....    LDR      r9,[r0,#0xfc4]
        0x000011f4:    ea4f054c    O.L.    LSL      r5,r12,#1
        0x000011f8:    fa06fa05    ....    LSL      r10,r6,r5
        0x000011fc:    ea29090a    )...    BIC      r9,r9,r10
        0x00001200:    f8c49000    ....    STR      r9,[r4,#0]
        0x00001204:    f8d49000    ....    LDR      r9,[r4,#0]
        0x00001208:    fa08f505    ....    LSL      r5,r8,r5
        0x0000120c:    ea490505    I...    ORR      r5,r9,r5
        0x00001210:    6025        %`      STR      r5,[r4,#0]
        0x00001212:    f10c0c01    ....    ADD      r12,r12,#1
        0x00001216:    f00c0cff    ....    AND      r12,r12,#0xff
        0x0000121a:    f1bc0f08    ....    CMP      r12,#8
        0x0000121e:    d3e3        ..      BCC      0x11e8 ; GPIOPadConfigSet + 20
        0x00001220:    f8d0c500    ....    LDR      r12,[r0,#0x500]
        0x00001224:    f0120f01    ....    TST      r2,#1
        0x00001228:    bf14        ..      ITE      NE
        0x0000122a:    ea4c0c01    L...    ORRNE    r12,r12,r1
        0x0000122e:    ea2c0c01    ,...    BICEQ    r12,r12,r1
        0x00001232:    f8c0c500    ....    STR      r12,[r0,#0x500]
        0x00001236:    f8d0c504    ....    LDR      r12,[r0,#0x504]
        0x0000123a:    f0120f02    ....    TST      r2,#2
        0x0000123e:    bf14        ..      ITE      NE
        0x00001240:    ea4c0c01    L...    ORRNE    r12,r12,r1
        0x00001244:    ea2c0c01    ,...    BICEQ    r12,r12,r1
        0x00001248:    f8c0c504    ....    STR      r12,[r0,#0x504]
        0x0000124c:    f8d0c508    ....    LDR      r12,[r0,#0x508]
        0x00001250:    f0120f04    ....    TST      r2,#4
        0x00001254:    bf14        ..      ITE      NE
        0x00001256:    ea4c0c01    L...    ORRNE    r12,r12,r1
        0x0000125a:    ea2c0c01    ,...    BICEQ    r12,r12,r1
        0x0000125e:    f8c0c508    ....    STR      r12,[r0,#0x508]
        0x00001262:    f8d0c518    ....    LDR      r12,[r0,#0x518]
        0x00001266:    f0120f08    ....    TST      r2,#8
        0x0000126a:    bf14        ..      ITE      NE
        0x0000126c:    ea4c0c01    L...    ORRNE    r12,r12,r1
        0x00001270:    ea2c0c01    ,...    BICEQ    r12,r12,r1
        0x00001274:    f8c0c518    ....    STR      r12,[r0,#0x518]
        0x00001278:    f0120f10    ....    TST      r2,#0x10
        0x0000127c:    f8d0253c    ..<%    LDR      r2,[r0,#0x53c]
        0x00001280:    bf14        ..      ITE      NE
        0x00001282:    430a        .C      ORRNE    r2,r2,r1
        0x00001284:    438a        .C      BICEQ    r2,r2,r1
        0x00001286:    f8c0253c    ..<%    STR      r2,[r0,#0x53c]
        0x0000128a:    f8d0250c    ...%    LDR      r2,[r0,#0x50c]
        0x0000128e:    f0130f01    ....    TST      r3,#1
        0x00001292:    bf14        ..      ITE      NE
        0x00001294:    430a        .C      ORRNE    r2,r2,r1
        0x00001296:    438a        .C      BICEQ    r2,r2,r1
        0x00001298:    f8c0250c    ...%    STR      r2,[r0,#0x50c]
        0x0000129c:    f8d02510    ...%    LDR      r2,[r0,#0x510]
        0x000012a0:    f0130f02    ....    TST      r3,#2
        0x000012a4:    bf14        ..      ITE      NE
        0x000012a6:    430a        .C      ORRNE    r2,r2,r1
        0x000012a8:    438a        .C      BICEQ    r2,r2,r1
        0x000012aa:    f8c02510    ...%    STR      r2,[r0,#0x510]
        0x000012ae:    f8d02514    ...%    LDR      r2,[r0,#0x514]
        0x000012b2:    f0130f04    ....    TST      r3,#4
        0x000012b6:    bf14        ..      ITE      NE
        0x000012b8:    430a        .C      ORRNE    r2,r2,r1
        0x000012ba:    438a        .C      BICEQ    r2,r2,r1
        0x000012bc:    f8c02514    ...%    STR      r2,[r0,#0x514]
        0x000012c0:    f8d0251c    ...%    LDR      r2,[r0,#0x51c]
        0x000012c4:    f0130f08    ....    TST      r3,#8
        0x000012c8:    bf14        ..      ITE      NE
        0x000012ca:    430a        .C      ORRNE    r2,r2,r1
        0x000012cc:    438a        .C      BICEQ    r2,r2,r1
        0x000012ce:    f8c0251c    ...%    STR      r2,[r0,#0x51c]
        0x000012d2:    f8d02544    ..D%    LDR      r2,[r0,#0x544]
        0x000012d6:    f4137f00    ....    TST      r3,#0x200
        0x000012da:    bf14        ..      ITE      NE
        0x000012dc:    430a        .C      ORRNE    r2,r2,r1
        0x000012de:    438a        .C      BICEQ    r2,r2,r1
        0x000012e0:    f8c02544    ..D%    STR      r2,[r0,#0x544]
        0x000012e4:    f8d02540    ..@%    LDR      r2,[r0,#0x540]
        0x000012e8:    f4137f40    ..@.    TST      r3,#0x300
        0x000012ec:    bf14        ..      ITE      NE
        0x000012ee:    430a        .C      ORRNE    r2,r2,r1
        0x000012f0:    438a        .C      BICEQ    r2,r2,r1
        0x000012f2:    f8c02540    ..@%    STR      r2,[r0,#0x540]
        0x000012f6:    f8d02528    ..(%    LDR      r2,[r0,#0x528]
        0x000012fa:    2b00        .+      CMP      r3,#0
        0x000012fc:    bf0c        ..      ITE      EQ
        0x000012fe:    4311        .C      ORREQ    r1,r1,r2
        0x00001300:    ea220101    "...    BICNE    r1,r2,r1
        0x00001304:    f8c01528    ..(.    STR      r1,[r0,#0x528]
        0x00001308:    e8bd07f0    ....    POP      {r4-r10}
        0x0000130c:    4770        pG      BX       lr
        0x0000130e:    0000        ..      MOVS     r0,r0
    i.GPIOPinConfigure
    GPIOPinConfigure
        0x00001310:    4a0f        .J      LDR      r2,[pc,#60] ; [0x1350] = 0x400fe000
        0x00001312:    f3c04107    ...A    UBFX     r1,r0,#16,#8
        0x00001316:    6ed2        .n      LDR      r2,[r2,#0x6c]
        0x00001318:    2301        .#      MOVS     r3,#1
        0x0000131a:    408b        .@      LSLS     r3,r3,r1
        0x0000131c:    421a        .B      TST      r2,r3
        0x0000131e:    4a0d        .J      LDR      r2,[pc,#52] ; [0x1354] = 0x562c
        0x00001320:    bf1a        ..      ITTE     NE
        0x00001322:    eb0201c1    ....    ADDNE    r1,r2,r1,LSL #3
        0x00001326:    684a        Jh      LDRNE    r2,[r1,#4]
        0x00001328:    f8522031    R.1     LDREQ    r2,[r2,r1,LSL #3]
        0x0000132c:    f3c02107    ...!    UBFX     r1,r0,#8,#8
        0x00001330:    f202532c    ..,S    ADD      r3,r2,#0x52c
        0x00001334:    f8d2252c    ..,%    LDR      r2,[r2,#0x52c]
        0x00001338:    f04f0c0f    O...    MOV      r12,#0xf
        0x0000133c:    fa0cfc01    ....    LSL      r12,r12,r1
        0x00001340:    f000000f    ....    AND      r0,r0,#0xf
        0x00001344:    ea22020c    "...    BIC      r2,r2,r12
        0x00001348:    4088        .@      LSLS     r0,r0,r1
        0x0000134a:    4310        .C      ORRS     r0,r0,r2
        0x0000134c:    6018        .`      STR      r0,[r3,#0]
        0x0000134e:    4770        pG      BX       lr
    $d
        0x00001350:    400fe000    ...@    DCD    1074782208
        0x00001354:    0000562c    ,V..    DCD    22060
    $t
    i.GPIOPinRead
    GPIOPinRead
        0x00001358:    f8500021    P.!.    LDR      r0,[r0,r1,LSL #2]
        0x0000135c:    4770        pG      BX       lr
    i.GPIOPinTypeADC
    GPIOPinTypeADC
        0x0000135e:    b530        0.      PUSH     {r4,r5,lr}
        0x00001360:    460c        .F      MOV      r4,r1
        0x00001362:    4605        .F      MOV      r5,r0
        0x00001364:    2200        ."      MOVS     r2,#0
        0x00001366:    f7fffe00    ....    BL       GPIODirModeSet ; 0xf6a
        0x0000136a:    4621        !F      MOV      r1,r4
        0x0000136c:    4628        (F      MOV      r0,r5
        0x0000136e:    e8bd4030    ..0@    POP      {r4,r5,lr}
        0x00001372:    2300        .#      MOVS     r3,#0
        0x00001374:    2201        ."      MOVS     r2,#1
        0x00001376:    f7ffbf2d    ..-.    B.W      GPIOPadConfigSet ; 0x11d4
    i.GPIOPinTypeCAN
    GPIOPinTypeCAN
        0x0000137a:    b530        0.      PUSH     {r4,r5,lr}
        0x0000137c:    460c        .F      MOV      r4,r1
        0x0000137e:    4605        .F      MOV      r5,r0
        0x00001380:    2202        ."      MOVS     r2,#2
        0x00001382:    f7fffdf2    ....    BL       GPIODirModeSet ; 0xf6a
        0x00001386:    4621        !F      MOV      r1,r4
        0x00001388:    4628        (F      MOV      r0,r5
        0x0000138a:    e8bd4030    ..0@    POP      {r4,r5,lr}
        0x0000138e:    2308        .#      MOVS     r3,#8
        0x00001390:    2266        f"      MOVS     r2,#0x66
        0x00001392:    f7ffbf1f    ....    B.W      GPIOPadConfigSet ; 0x11d4
    i.GPIOPinTypeCIR
    GPIOPinTypeCIR
        0x00001396:    b530        0.      PUSH     {r4,r5,lr}
        0x00001398:    460c        .F      MOV      r4,r1
        0x0000139a:    4605        .F      MOV      r5,r0
        0x0000139c:    2202        ."      MOVS     r2,#2
        0x0000139e:    f7fffde4    ....    BL       GPIODirModeSet ; 0xf6a
        0x000013a2:    4621        !F      MOV      r1,r4
        0x000013a4:    4628        (F      MOV      r0,r5
        0x000013a6:    e8bd4030    ..0@    POP      {r4,r5,lr}
        0x000013aa:    2308        .#      MOVS     r3,#8
        0x000013ac:    2201        ."      MOVS     r2,#1
        0x000013ae:    f7ffbf11    ....    B.W      GPIOPadConfigSet ; 0x11d4
    i.GPIOPinTypeComparator
    GPIOPinTypeComparator
        0x000013b2:    b530        0.      PUSH     {r4,r5,lr}
        0x000013b4:    460c        .F      MOV      r4,r1
        0x000013b6:    4605        .F      MOV      r5,r0
        0x000013b8:    2200        ."      MOVS     r2,#0
        0x000013ba:    f7fffdd6    ....    BL       GPIODirModeSet ; 0xf6a
        0x000013be:    4621        !F      MOV      r1,r4
        0x000013c0:    4628        (F      MOV      r0,r5
        0x000013c2:    e8bd4030    ..0@    POP      {r4,r5,lr}
        0x000013c6:    2300        .#      MOVS     r3,#0
        0x000013c8:    2201        ."      MOVS     r2,#1
        0x000013ca:    f7ffbf03    ....    B.W      GPIOPadConfigSet ; 0x11d4
    i.GPIOPinTypeEPI
    GPIOPinTypeEPI
        0x000013ce:    b530        0.      PUSH     {r4,r5,lr}
        0x000013d0:    460c        .F      MOV      r4,r1
        0x000013d2:    4605        .F      MOV      r5,r0
        0x000013d4:    2202        ."      MOVS     r2,#2
        0x000013d6:    f7fffdc8    ....    BL       GPIODirModeSet ; 0xf6a
        0x000013da:    4621        !F      MOV      r1,r4
        0x000013dc:    4628        (F      MOV      r0,r5
        0x000013de:    e8bd4030    ..0@    POP      {r4,r5,lr}
        0x000013e2:    2308        .#      MOVS     r3,#8
        0x000013e4:    2266        f"      MOVS     r2,#0x66
        0x000013e6:    f7ffbef5    ....    B.W      GPIOPadConfigSet ; 0x11d4
    i.GPIOPinTypeEthernetLED
    GPIOPinTypeEthernetLED
        0x000013ea:    b530        0.      PUSH     {r4,r5,lr}
        0x000013ec:    460c        .F      MOV      r4,r1
        0x000013ee:    4605        .F      MOV      r5,r0
        0x000013f0:    2202        ."      MOVS     r2,#2
        0x000013f2:    f7fffdba    ....    BL       GPIODirModeSet ; 0xf6a
        0x000013f6:    4621        !F      MOV      r1,r4
        0x000013f8:    4628        (F      MOV      r0,r5
        0x000013fa:    e8bd4030    ..0@    POP      {r4,r5,lr}
        0x000013fe:    2308        .#      MOVS     r3,#8
        0x00001400:    2266        f"      MOVS     r2,#0x66
        0x00001402:    f7ffbee7    ....    B.W      GPIOPadConfigSet ; 0x11d4
    i.GPIOPinTypeEthernetMII
    GPIOPinTypeEthernetMII
        0x00001406:    b530        0.      PUSH     {r4,r5,lr}
        0x00001408:    460c        .F      MOV      r4,r1
        0x0000140a:    4605        .F      MOV      r5,r0
        0x0000140c:    2202        ."      MOVS     r2,#2
        0x0000140e:    f7fffdac    ....    BL       GPIODirModeSet ; 0xf6a
        0x00001412:    4621        !F      MOV      r1,r4
        0x00001414:    4628        (F      MOV      r0,r5
        0x00001416:    e8bd4030    ..0@    POP      {r4,r5,lr}
        0x0000141a:    2308        .#      MOVS     r3,#8
        0x0000141c:    2266        f"      MOVS     r2,#0x66
        0x0000141e:    f7ffbed9    ....    B.W      GPIOPadConfigSet ; 0x11d4
    i.GPIOPinTypeGPIOInput
    GPIOPinTypeGPIOInput
        0x00001422:    b530        0.      PUSH     {r4,r5,lr}
        0x00001424:    460c        .F      MOV      r4,r1
        0x00001426:    4605        .F      MOV      r5,r0
        0x00001428:    2200        ."      MOVS     r2,#0
        0x0000142a:    f7fffd9e    ....    BL       GPIODirModeSet ; 0xf6a
        0x0000142e:    4621        !F      MOV      r1,r4
        0x00001430:    4628        (F      MOV      r0,r5
        0x00001432:    e8bd4030    ..0@    POP      {r4,r5,lr}
        0x00001436:    2308        .#      MOVS     r3,#8
        0x00001438:    2201        ."      MOVS     r2,#1
        0x0000143a:    f7ffbecb    ....    B.W      GPIOPadConfigSet ; 0x11d4
    i.GPIOPinTypeGPIOOutput
    GPIOPinTypeGPIOOutput
        0x0000143e:    b530        0.      PUSH     {r4,r5,lr}
        0x00001440:    460c        .F      MOV      r4,r1
        0x00001442:    4605        .F      MOV      r5,r0
        0x00001444:    2308        .#      MOVS     r3,#8
        0x00001446:    2201        ."      MOVS     r2,#1
        0x00001448:    f7fffec4    ....    BL       GPIOPadConfigSet ; 0x11d4
        0x0000144c:    4621        !F      MOV      r1,r4
        0x0000144e:    4628        (F      MOV      r0,r5
        0x00001450:    e8bd4030    ..0@    POP      {r4,r5,lr}
        0x00001454:    2201        ."      MOVS     r2,#1
        0x00001456:    f7ffbd88    ....    B.W      GPIODirModeSet ; 0xf6a
    i.GPIOPinTypeGPIOOutputOD
    GPIOPinTypeGPIOOutputOD
        0x0000145a:    b530        0.      PUSH     {r4,r5,lr}
        0x0000145c:    460c        .F      MOV      r4,r1
        0x0000145e:    4605        .F      MOV      r5,r0
        0x00001460:    2309        .#      MOVS     r3,#9
        0x00001462:    2201        ."      MOVS     r2,#1
        0x00001464:    f7fffeb6    ....    BL       GPIOPadConfigSet ; 0x11d4
        0x00001468:    4621        !F      MOV      r1,r4
        0x0000146a:    4628        (F      MOV      r0,r5
        0x0000146c:    e8bd4030    ..0@    POP      {r4,r5,lr}
        0x00001470:    2201        ."      MOVS     r2,#1
        0x00001472:    f7ffbd7a    ..z.    B.W      GPIODirModeSet ; 0xf6a
    i.GPIOPinTypeI2C
    GPIOPinTypeI2C
        0x00001476:    b530        0.      PUSH     {r4,r5,lr}
        0x00001478:    460c        .F      MOV      r4,r1
        0x0000147a:    4605        .F      MOV      r5,r0
        0x0000147c:    2202        ."      MOVS     r2,#2
        0x0000147e:    f7fffd74    ..t.    BL       GPIODirModeSet ; 0xf6a
        0x00001482:    4621        !F      MOV      r1,r4
        0x00001484:    4628        (F      MOV      r0,r5
        0x00001486:    e8bd4030    ..0@    POP      {r4,r5,lr}
        0x0000148a:    2309        .#      MOVS     r3,#9
        0x0000148c:    2201        ."      MOVS     r2,#1
        0x0000148e:    f7ffbea1    ....    B.W      GPIOPadConfigSet ; 0x11d4
    i.GPIOPinTypeI2CSCL
    GPIOPinTypeI2CSCL
        0x00001492:    b530        0.      PUSH     {r4,r5,lr}
        0x00001494:    460c        .F      MOV      r4,r1
        0x00001496:    4605        .F      MOV      r5,r0
        0x00001498:    2202        ."      MOVS     r2,#2
        0x0000149a:    f7fffd66    ..f.    BL       GPIODirModeSet ; 0xf6a
        0x0000149e:    4621        !F      MOV      r1,r4
        0x000014a0:    4628        (F      MOV      r0,r5
        0x000014a2:    e8bd4030    ..0@    POP      {r4,r5,lr}
        0x000014a6:    2308        .#      MOVS     r3,#8
        0x000014a8:    2201        ."      MOVS     r2,#1
        0x000014aa:    f7ffbe93    ....    B.W      GPIOPadConfigSet ; 0x11d4
    i.GPIOPinTypeKBColumn
    GPIOPinTypeKBColumn
        0x000014ae:    b530        0.      PUSH     {r4,r5,lr}
        0x000014b0:    460c        .F      MOV      r4,r1
        0x000014b2:    4605        .F      MOV      r5,r0
        0x000014b4:    2202        ."      MOVS     r2,#2
        0x000014b6:    f7fffd58    ..X.    BL       GPIODirModeSet ; 0xf6a
        0x000014ba:    4621        !F      MOV      r1,r4
        0x000014bc:    4628        (F      MOV      r0,r5
        0x000014be:    e8bd4030    ..0@    POP      {r4,r5,lr}
        0x000014c2:    230a        .#      MOVS     r3,#0xa
        0x000014c4:    2201        ."      MOVS     r2,#1
        0x000014c6:    f7ffbe85    ....    B.W      GPIOPadConfigSet ; 0x11d4
    i.GPIOPinTypeKBRow
    GPIOPinTypeKBRow
        0x000014ca:    b530        0.      PUSH     {r4,r5,lr}
        0x000014cc:    460c        .F      MOV      r4,r1
        0x000014ce:    4605        .F      MOV      r5,r0
        0x000014d0:    2202        ."      MOVS     r2,#2
        0x000014d2:    f7fffd4a    ..J.    BL       GPIODirModeSet ; 0xf6a
        0x000014d6:    4621        !F      MOV      r1,r4
        0x000014d8:    4628        (F      MOV      r0,r5
        0x000014da:    e8bd4030    ..0@    POP      {r4,r5,lr}
        0x000014de:    2308        .#      MOVS     r3,#8
        0x000014e0:    2201        ."      MOVS     r2,#1
        0x000014e2:    f7ffbe77    ..w.    B.W      GPIOPadConfigSet ; 0x11d4
    i.GPIOPinTypeLCD
    GPIOPinTypeLCD
        0x000014e6:    b530        0.      PUSH     {r4,r5,lr}
        0x000014e8:    460c        .F      MOV      r4,r1
        0x000014ea:    4605        .F      MOV      r5,r0
        0x000014ec:    2202        ."      MOVS     r2,#2
        0x000014ee:    f7fffd3c    ..<.    BL       GPIODirModeSet ; 0xf6a
        0x000014f2:    4621        !F      MOV      r1,r4
        0x000014f4:    4628        (F      MOV      r0,r5
        0x000014f6:    e8bd4030    ..0@    POP      {r4,r5,lr}
        0x000014fa:    2308        .#      MOVS     r3,#8
        0x000014fc:    2266        f"      MOVS     r2,#0x66
        0x000014fe:    f7ffbe69    ..i.    B.W      GPIOPadConfigSet ; 0x11d4
    i.GPIOPinTypeLEDSeq
    GPIOPinTypeLEDSeq
        0x00001502:    b530        0.      PUSH     {r4,r5,lr}
        0x00001504:    460c        .F      MOV      r4,r1
        0x00001506:    4605        .F      MOV      r5,r0
        0x00001508:    2202        ."      MOVS     r2,#2
        0x0000150a:    f7fffd2e    ....    BL       GPIODirModeSet ; 0xf6a
        0x0000150e:    4621        !F      MOV      r1,r4
        0x00001510:    4628        (F      MOV      r0,r5
        0x00001512:    e8bd4030    ..0@    POP      {r4,r5,lr}
        0x00001516:    2308        .#      MOVS     r3,#8
        0x00001518:    2266        f"      MOVS     r2,#0x66
        0x0000151a:    f7ffbe5b    ..[.    B.W      GPIOPadConfigSet ; 0x11d4
    i.GPIOPinTypeLPC
    GPIOPinTypeLPC
        0x0000151e:    b530        0.      PUSH     {r4,r5,lr}
        0x00001520:    460c        .F      MOV      r4,r1
        0x00001522:    4605        .F      MOV      r5,r0
        0x00001524:    2202        ."      MOVS     r2,#2
        0x00001526:    f7fffd20    .. .    BL       GPIODirModeSet ; 0xf6a
        0x0000152a:    4621        !F      MOV      r1,r4
        0x0000152c:    4628        (F      MOV      r0,r5
        0x0000152e:    e8bd4030    ..0@    POP      {r4,r5,lr}
        0x00001532:    2308        .#      MOVS     r3,#8
        0x00001534:    2266        f"      MOVS     r2,#0x66
        0x00001536:    f7ffbe4d    ..M.    B.W      GPIOPadConfigSet ; 0x11d4
    i.GPIOPinTypePECIRx
    GPIOPinTypePECIRx
        0x0000153a:    b530        0.      PUSH     {r4,r5,lr}
        0x0000153c:    460c        .F      MOV      r4,r1
        0x0000153e:    4605        .F      MOV      r5,r0
        0x00001540:    2200        ."      MOVS     r2,#0
        0x00001542:    f7fffd12    ....    BL       GPIODirModeSet ; 0xf6a
        0x00001546:    4621        !F      MOV      r1,r4
        0x00001548:    4628        (F      MOV      r0,r5
        0x0000154a:    e8bd4030    ..0@    POP      {r4,r5,lr}
        0x0000154e:    2300        .#      MOVS     r3,#0
        0x00001550:    2201        ."      MOVS     r2,#1
        0x00001552:    f7ffbe3f    ..?.    B.W      GPIOPadConfigSet ; 0x11d4
    i.GPIOPinTypePECITx
    GPIOPinTypePECITx
        0x00001556:    b530        0.      PUSH     {r4,r5,lr}
        0x00001558:    460c        .F      MOV      r4,r1
        0x0000155a:    4605        .F      MOV      r5,r0
        0x0000155c:    2202        ."      MOVS     r2,#2
        0x0000155e:    f7fffd04    ....    BL       GPIODirModeSet ; 0xf6a
        0x00001562:    4621        !F      MOV      r1,r4
        0x00001564:    4628        (F      MOV      r0,r5
        0x00001566:    e8bd4030    ..0@    POP      {r4,r5,lr}
        0x0000156a:    2308        .#      MOVS     r3,#8
        0x0000156c:    2201        ."      MOVS     r2,#1
        0x0000156e:    f7ffbe31    ..1.    B.W      GPIOPadConfigSet ; 0x11d4
    i.GPIOPinTypePWM
    GPIOPinTypePWM
        0x00001572:    b530        0.      PUSH     {r4,r5,lr}
        0x00001574:    460c        .F      MOV      r4,r1
        0x00001576:    4605        .F      MOV      r5,r0
        0x00001578:    2202        ."      MOVS     r2,#2
        0x0000157a:    f7fffcf6    ....    BL       GPIODirModeSet ; 0xf6a
        0x0000157e:    4621        !F      MOV      r1,r4
        0x00001580:    4628        (F      MOV      r0,r5
        0x00001582:    e8bd4030    ..0@    POP      {r4,r5,lr}
        0x00001586:    2308        .#      MOVS     r3,#8
        0x00001588:    2201        ."      MOVS     r2,#1
        0x0000158a:    f7ffbe23    ..#.    B.W      GPIOPadConfigSet ; 0x11d4
    i.GPIOPinTypeQEI
    GPIOPinTypeQEI
        0x0000158e:    b530        0.      PUSH     {r4,r5,lr}
        0x00001590:    460c        .F      MOV      r4,r1
        0x00001592:    4605        .F      MOV      r5,r0
        0x00001594:    2202        ."      MOVS     r2,#2
        0x00001596:    f7fffce8    ....    BL       GPIODirModeSet ; 0xf6a
        0x0000159a:    4621        !F      MOV      r1,r4
        0x0000159c:    4628        (F      MOV      r0,r5
        0x0000159e:    e8bd4030    ..0@    POP      {r4,r5,lr}
        0x000015a2:    230a        .#      MOVS     r3,#0xa
        0x000015a4:    2201        ."      MOVS     r2,#1
        0x000015a6:    f7ffbe15    ....    B.W      GPIOPadConfigSet ; 0x11d4
    i.GPIOPinTypeSSI
    GPIOPinTypeSSI
        0x000015aa:    b530        0.      PUSH     {r4,r5,lr}
        0x000015ac:    460c        .F      MOV      r4,r1
        0x000015ae:    4605        .F      MOV      r5,r0
        0x000015b0:    2202        ."      MOVS     r2,#2
        0x000015b2:    f7fffcda    ....    BL       GPIODirModeSet ; 0xf6a
        0x000015b6:    4621        !F      MOV      r1,r4
        0x000015b8:    4628        (F      MOV      r0,r5
        0x000015ba:    e8bd4030    ..0@    POP      {r4,r5,lr}
        0x000015be:    2308        .#      MOVS     r3,#8
        0x000015c0:    2201        ."      MOVS     r2,#1
        0x000015c2:    f7ffbe07    ....    B.W      GPIOPadConfigSet ; 0x11d4
    i.GPIOPinTypeTimer
    GPIOPinTypeTimer
        0x000015c6:    b530        0.      PUSH     {r4,r5,lr}
        0x000015c8:    460c        .F      MOV      r4,r1
        0x000015ca:    4605        .F      MOV      r5,r0
        0x000015cc:    2202        ."      MOVS     r2,#2
        0x000015ce:    f7fffccc    ....    BL       GPIODirModeSet ; 0xf6a
        0x000015d2:    4621        !F      MOV      r1,r4
        0x000015d4:    4628        (F      MOV      r0,r5
        0x000015d6:    e8bd4030    ..0@    POP      {r4,r5,lr}
        0x000015da:    2308        .#      MOVS     r3,#8
        0x000015dc:    2201        ."      MOVS     r2,#1
        0x000015de:    f7ffbdf9    ....    B.W      GPIOPadConfigSet ; 0x11d4
    i.GPIOPinTypeUART
    GPIOPinTypeUART
        0x000015e2:    b530        0.      PUSH     {r4,r5,lr}
        0x000015e4:    460c        .F      MOV      r4,r1
        0x000015e6:    4605        .F      MOV      r5,r0
        0x000015e8:    2202        ."      MOVS     r2,#2
        0x000015ea:    f7fffcbe    ....    BL       GPIODirModeSet ; 0xf6a
        0x000015ee:    4621        !F      MOV      r1,r4
        0x000015f0:    4628        (F      MOV      r0,r5
        0x000015f2:    e8bd4030    ..0@    POP      {r4,r5,lr}
        0x000015f6:    2308        .#      MOVS     r3,#8
        0x000015f8:    2201        ."      MOVS     r2,#1
        0x000015fa:    f7ffbdeb    ....    B.W      GPIOPadConfigSet ; 0x11d4
    i.GPIOPinTypeUSBAnalog
    GPIOPinTypeUSBAnalog
        0x000015fe:    b530        0.      PUSH     {r4,r5,lr}
        0x00001600:    460c        .F      MOV      r4,r1
        0x00001602:    4605        .F      MOV      r5,r0
        0x00001604:    2200        ."      MOVS     r2,#0
        0x00001606:    f7fffcb0    ....    BL       GPIODirModeSet ; 0xf6a
        0x0000160a:    4621        !F      MOV      r1,r4
        0x0000160c:    4628        (F      MOV      r0,r5
        0x0000160e:    e8bd4030    ..0@    POP      {r4,r5,lr}
        0x00001612:    2300        .#      MOVS     r3,#0
        0x00001614:    2201        ."      MOVS     r2,#1
        0x00001616:    f7ffbddd    ....    B.W      GPIOPadConfigSet ; 0x11d4
    i.GPIOPinTypeUSBDigital
    GPIOPinTypeUSBDigital
        0x0000161a:    b530        0.      PUSH     {r4,r5,lr}
        0x0000161c:    460c        .F      MOV      r4,r1
        0x0000161e:    4605        .F      MOV      r5,r0
        0x00001620:    2202        ."      MOVS     r2,#2
        0x00001622:    f7fffca2    ....    BL       GPIODirModeSet ; 0xf6a
        0x00001626:    4621        !F      MOV      r1,r4
        0x00001628:    4628        (F      MOV      r0,r5
        0x0000162a:    e8bd4030    ..0@    POP      {r4,r5,lr}
        0x0000162e:    2308        .#      MOVS     r3,#8
        0x00001630:    2201        ."      MOVS     r2,#1
        0x00001632:    f7ffbdcf    ....    B.W      GPIOPadConfigSet ; 0x11d4
    i.GPIOPinTypeWakeHigh
    GPIOPinTypeWakeHigh
        0x00001636:    b530        0.      PUSH     {r4,r5,lr}
        0x00001638:    460c        .F      MOV      r4,r1
        0x0000163a:    4605        .F      MOV      r5,r0
        0x0000163c:    2200        ."      MOVS     r2,#0
        0x0000163e:    f7fffc94    ....    BL       GPIODirModeSet ; 0xf6a
        0x00001642:    4621        !F      MOV      r1,r4
        0x00001644:    4628        (F      MOV      r0,r5
        0x00001646:    e8bd4030    ..0@    POP      {r4,r5,lr}
        0x0000164a:    f44f7302    O..s    MOV      r3,#0x208
        0x0000164e:    2201        ."      MOVS     r2,#1
        0x00001650:    f7ffbdc0    ....    B.W      GPIOPadConfigSet ; 0x11d4
    i.GPIOPinTypeWakeLow
    GPIOPinTypeWakeLow
        0x00001654:    b530        0.      PUSH     {r4,r5,lr}
        0x00001656:    460c        .F      MOV      r4,r1
        0x00001658:    4605        .F      MOV      r5,r0
        0x0000165a:    2200        ."      MOVS     r2,#0
        0x0000165c:    f7fffc85    ....    BL       GPIODirModeSet ; 0xf6a
        0x00001660:    4621        !F      MOV      r1,r4
        0x00001662:    4628        (F      MOV      r0,r5
        0x00001664:    e8bd4030    ..0@    POP      {r4,r5,lr}
        0x00001668:    f44f7384    O..s    MOV      r3,#0x108
        0x0000166c:    2201        ."      MOVS     r2,#1
        0x0000166e:    f7ffbdb1    ....    B.W      GPIOPadConfigSet ; 0x11d4
    i.GPIOPinWakeStatus
    GPIOPinWakeStatus
        0x00001672:    f50060a9    ...`    ADD      r0,r0,#0x548
        0x00001676:    4770        pG      BX       lr
    i.GPIOPinWrite
    GPIOPinWrite
        0x00001678:    f8402021    @.!     STR      r2,[r0,r1,LSL #2]
        0x0000167c:    4770        pG      BX       lr
    i.GetBufferCount
    GetBufferCount
        0x0000167e:    b530        0.      PUSH     {r4,r5,lr}
        0x00001680:    4603        .F      MOV      r3,r0
        0x00001682:    460c        .F      MOV      r4,r1
        0x00001684:    4615        .F      MOV      r5,r2
        0x00001686:    6821        !h      LDR      r1,[r4,#0]
        0x00001688:    681a        .h      LDR      r2,[r3,#0]
        0x0000168a:    4291        .B      CMP      r1,r2
        0x0000168c:    d301        ..      BCC      0x1692 ; GetBufferCount + 20
        0x0000168e:    1a88        ..      SUBS     r0,r1,r2
        0x00001690:    bd30        0.      POP      {r4,r5,pc}
        0x00001692:    1a50        P.      SUBS     r0,r2,r1
        0x00001694:    1a28        (.      SUBS     r0,r5,r0
        0x00001696:    e7fb        ..      B        0x1690 ; GetBufferCount + 18
    i.I2CFIFODataGet
    I2CFIFODataGet
        0x00001698:    f8d01f08    ....    LDR      r1,[r0,#0xf08]
        0x0000169c:    f4113f80    ...?    TST      r1,#0x10000
        0x000016a0:    d1fa        ..      BNE      I2CFIFODataGet ; 0x1698
        0x000016a2:    f8d00f00    ....    LDR      r0,[r0,#0xf00]
        0x000016a6:    4770        pG      BX       lr
    i.I2CFIFODataGetNonBlocking
    I2CFIFODataGetNonBlocking
        0x000016a8:    f8d02f08    .../    LDR      r2,[r0,#0xf08]
        0x000016ac:    f4123f80    ...?    TST      r2,#0x10000
        0x000016b0:    bf1c        ..      ITT      NE
        0x000016b2:    2000        .       MOVNE    r0,#0
        0x000016b4:    4770        pG      BXNE     lr
        0x000016b6:    f8d00f00    ....    LDR      r0,[r0,#0xf00]
        0x000016ba:    7008        .p      STRB     r0,[r1,#0]
        0x000016bc:    2001        .       MOVS     r0,#1
        0x000016be:    4770        pG      BX       lr
    i.I2CFIFODataPut
    I2CFIFODataPut
        0x000016c0:    f8d02f08    .../    LDR      r2,[r0,#0xf08]
        0x000016c4:    f0120f02    ....    TST      r2,#2
        0x000016c8:    d1fa        ..      BNE      I2CFIFODataPut ; 0x16c0
        0x000016ca:    f8c01f00    ....    STR      r1,[r0,#0xf00]
        0x000016ce:    4770        pG      BX       lr
    i.I2CFIFODataPutNonBlocking
    I2CFIFODataPutNonBlocking
        0x000016d0:    f8d02f08    .../    LDR      r2,[r0,#0xf08]
        0x000016d4:    f0120f02    ....    TST      r2,#2
        0x000016d8:    bf12        ..      ITEE     NE
        0x000016da:    2000        .       MOVNE    r0,#0
        0x000016dc:    f8c01f00    ....    STREQ    r1,[r0,#0xf00]
        0x000016e0:    2001        .       MOVEQ    r0,#1
        0x000016e2:    4770        pG      BX       lr
    i.I2CFIFOStatus
    I2CFIFOStatus
        0x000016e4:    f8d00f08    ....    LDR      r0,[r0,#0xf08]
        0x000016e8:    4770        pG      BX       lr
        0x000016ea:    0000        ..      MOVS     r0,r0
    i.I2CIntRegister
    I2CIntRegister
        0x000016ec:    4a14        .J      LDR      r2,[pc,#80] ; [0x1740] = 0x400fe000
        0x000016ee:    b510        ..      PUSH     {r4,lr}
        0x000016f0:    4b12        .K      LDR      r3,[pc,#72] ; [0x173c] = 0x5920
        0x000016f2:    6812        .h      LDR      r2,[r2,#0]
        0x000016f4:    f04f0c06    O...    MOV      r12,#6
        0x000016f8:    4c12        .L      LDR      r4,[pc,#72] ; [0x1744] = 0x70ff0000
        0x000016fa:    4022        "@      ANDS     r2,r2,r4
        0x000016fc:    f1a25480    ...T    SUB      r4,r2,#0x10000000
        0x00001700:    f5b42420    .. $    SUBS     r4,r4,#0xa0000
        0x00001704:    bf04        ..      ITT      EQ
        0x00001706:    4b10        .K      LDREQ    r3,[pc,#64] ; [0x1748] = 0x5950
        0x00001708:    f04f0c0a    O...    MOVEQ    r12,#0xa
        0x0000170c:    2200        ."      MOVS     r2,#0
        0x0000170e:    f1bc0f00    ....    CMP      r12,#0
        0x00001712:    dd0a        ..      BLE      0x172a ; I2CIntRegister + 62
        0x00001714:    f8534032    S.2@    LDR      r4,[r3,r2,LSL #3]
        0x00001718:    4284        .B      CMP      r4,r0
        0x0000171a:    d103        ..      BNE      0x1724 ; I2CIntRegister + 56
        0x0000171c:    eb0300c2    ....    ADD      r0,r3,r2,LSL #3
        0x00001720:    6844        Dh      LDR      r4,[r0,#4]
        0x00001722:    e003        ..      B        0x172c ; I2CIntRegister + 64
        0x00001724:    1c52        R.      ADDS     r2,r2,#1
        0x00001726:    4562        bE      CMP      r2,r12
        0x00001728:    dbf4        ..      BLT      0x1714 ; I2CIntRegister + 40
        0x0000172a:    2400        .$      MOVS     r4,#0
        0x0000172c:    4620         F      MOV      r0,r4
        0x0000172e:    f000ff1b    ....    BL       IntRegister ; 0x2568
        0x00001732:    4620         F      MOV      r0,r4
        0x00001734:    e8bd4010    ...@    POP      {r4,lr}
        0x00001738:    f000bdfa    ....    B.W      IntEnable ; 0x2330
    $d
        0x0000173c:    00005920     Y..    DCD    22816
        0x00001740:    400fe000    ...@    DCD    1074782208
        0x00001744:    70ff0000    ...p    DCD    1895759872
        0x00001748:    00005950    PY..    DCD    22864
    $t
    i.I2CIntUnregister
    I2CIntUnregister
        0x0000174c:    4914        .I      LDR      r1,[pc,#80] ; [0x17a0] = 0x400fe000
        0x0000174e:    b510        ..      PUSH     {r4,lr}
        0x00001750:    4a12        .J      LDR      r2,[pc,#72] ; [0x179c] = 0x5920
        0x00001752:    6809        .h      LDR      r1,[r1,#0]
        0x00001754:    2306        .#      MOVS     r3,#6
        0x00001756:    f8dfc04c    ..L.    LDR      r12,[pc,#76] ; [0x17a4] = 0x70ff0000
        0x0000175a:    ea01010c    ....    AND      r1,r1,r12
        0x0000175e:    f1a15c80    ...\    SUB      r12,r1,#0x10000000
        0x00001762:    f5bc2c20    .. ,    SUBS     r12,r12,#0xa0000
        0x00001766:    bf04        ..      ITT      EQ
        0x00001768:    4a0f        .J      LDREQ    r2,[pc,#60] ; [0x17a8] = 0x5950
        0x0000176a:    230a        .#      MOVEQ    r3,#0xa
        0x0000176c:    2100        .!      MOVS     r1,#0
        0x0000176e:    2b00        .+      CMP      r3,#0
        0x00001770:    dd0a        ..      BLE      0x1788 ; I2CIntUnregister + 60
        0x00001772:    f852c031    R.1.    LDR      r12,[r2,r1,LSL #3]
        0x00001776:    4584        .E      CMP      r12,r0
        0x00001778:    d103        ..      BNE      0x1782 ; I2CIntUnregister + 54
        0x0000177a:    eb0200c1    ....    ADD      r0,r2,r1,LSL #3
        0x0000177e:    6844        Dh      LDR      r4,[r0,#4]
        0x00001780:    e003        ..      B        0x178a ; I2CIntUnregister + 62
        0x00001782:    1c49        I.      ADDS     r1,r1,#1
        0x00001784:    4299        .B      CMP      r1,r3
        0x00001786:    dbf4        ..      BLT      0x1772 ; I2CIntUnregister + 38
        0x00001788:    2400        .$      MOVS     r4,#0
        0x0000178a:    4620         F      MOV      r0,r4
        0x0000178c:    f000fd9e    ....    BL       IntDisable ; 0x22cc
        0x00001790:    4620         F      MOV      r0,r4
        0x00001792:    e8bd4010    ...@    POP      {r4,lr}
        0x00001796:    f000bf07    ....    B.W      IntUnregister ; 0x25a8
    $d
        0x0000179a:    0000        ..      DCW    0
        0x0000179c:    00005920     Y..    DCD    22816
        0x000017a0:    400fe000    ...@    DCD    1074782208
        0x000017a4:    70ff0000    ...p    DCD    1895759872
        0x000017a8:    00005950    PY..    DCD    22864
    $t
    i.I2CMCommand
    I2CMCommand
        0x000017ac:    e92d5fff    -.._    PUSH     {r0-r12,lr}
        0x000017b0:    4604        .F      MOV      r4,r0
        0x000017b2:    e9dd7610    ...v    LDRD     r7,r6,[sp,#0x40]
        0x000017b6:    e9dd8b0e    ....    LDRD     r8,r11,[sp,#0x38]
        0x000017ba:    e9dda912    ....    LDRD     r10,r9,[sp,#0x48]
        0x000017be:    7900        .y      LDRB     r0,[r0,#4]
        0x000017c0:    f000fe02    ....    BL       IntIsEnabled ; 0x23c8
        0x000017c4:    2800        .(      CMP      r0,#0
        0x000017c6:    bf08        ..      IT       EQ
        0x000017c8:    2500        .%      MOVEQ    r5,#0
        0x000017ca:    d003        ..      BEQ      0x17d4 ; I2CMCommand + 40
        0x000017cc:    2501        .%      MOVS     r5,#1
        0x000017ce:    7920         y      LDRB     r0,[r4,#4]
        0x000017d0:    f000fd7c    ..|.    BL       IntDisable ; 0x22cc
        0x000017d4:    7a60        `z      LDRB     r0,[r4,#9]
        0x000017d6:    1c41        A.      ADDS     r1,r0,#1
        0x000017d8:    290a        .)      CMP      r1,#0xa
        0x000017da:    bf08        ..      IT       EQ
        0x000017dc:    2100        .!      MOVEQ    r1,#0
        0x000017de:    7a22        "z      LDRB     r2,[r4,#8]
        0x000017e0:    428a        .B      CMP      r2,r1
        0x000017e2:    d108        ..      BNE      0x17f6 ; I2CMCommand + 74
        0x000017e4:    2d00        .-      CMP      r5,#0
        0x000017e6:    bf1c        ..      ITT      NE
        0x000017e8:    7920         y      LDRBNE   r0,[r4,#4]
        0x000017ea:    f000fda1    ....    BLNE     IntEnable ; 0x2330
        0x000017ee:    2000        .       MOVS     r0,#0
        0x000017f0:    b004        ..      ADD      sp,sp,#0x10
        0x000017f2:    e8bd9ff0    ....    POP      {r4-r12,pc}
        0x000017f6:    ebc000c0    ....    RSB      r0,r0,r0,LSL #3
        0x000017fa:    eb040080    ....    ADD      r0,r4,r0,LSL #2
        0x000017fe:    9a01        ..      LDR      r2,[sp,#4]
        0x00001800:    7302        .s      STRB     r2,[r0,#0xc]
        0x00001802:    9a02        ..      LDR      r2,[sp,#8]
        0x00001804:    6102        .a      STR      r2,[r0,#0x10]
        0x00001806:    9a03        ..      LDR      r2,[sp,#0xc]
        0x00001808:    8282        ..      STRH     r2,[r0,#0x14]
        0x0000180a:    f8a08016    ....    STRH     r8,[r0,#0x16]
        0x0000180e:    f8c0b018    ....    STR      r11,[r0,#0x18]
        0x00001812:    8387        ..      STRH     r7,[r0,#0x1c]
        0x00001814:    83c6        ..      STRH     r6,[r0,#0x1e]
        0x00001816:    e9c0a908    ....    STRD     r10,r9,[r0,#0x20]
        0x0000181a:    7261        ar      STRB     r1,[r4,#9]
        0x0000181c:    79e0        .y      LDRB     r0,[r4,#7]
        0x0000181e:    2800        .(      CMP      r0,#0
        0x00001820:    bf04        ..      ITT      EQ
        0x00001822:    7920         y      LDRBEQ   r0,[r4,#4]
        0x00001824:    f000feba    ....    BLEQ     IntTrigger ; 0x259c
        0x00001828:    2d00        .-      CMP      r5,#0
        0x0000182a:    bf1c        ..      ITT      NE
        0x0000182c:    7920         y      LDRBNE   r0,[r4,#4]
        0x0000182e:    f000fd7f    ....    BLNE     IntEnable ; 0x2330
        0x00001832:    2001        .       MOVS     r0,#1
        0x00001834:    b004        ..      ADD      sp,sp,#0x10
        0x00001836:    e8bd9ff0    ....    POP      {r4-r12,pc}
    i.I2CMInit
    I2CMInit
        0x0000183a:    b570        p.      PUSH     {r4-r6,lr}
        0x0000183c:    460d        .F      MOV      r5,r1
        0x0000183e:    e9ddc104    ....    LDRD     r12,r1,[sp,#0x10]
        0x00001842:    6005        .`      STR      r5,[r0,#0]
        0x00001844:    7102        .q      STRB     r2,[r0,#4]
        0x00001846:    7143        Cq      STRB     r3,[r0,#5]
        0x00001848:    f880c006    ....    STRB     r12,[r0,#6]
        0x0000184c:    2300        .#      MOVS     r3,#0
        0x0000184e:    71c3        .q      STRB     r3,[r0,#7]
        0x00001850:    7203        .r      STRB     r3,[r0,#8]
        0x00001852:    4614        .F      MOV      r4,r2
        0x00001854:    7243        Cr      STRB     r3,[r0,#9]
        0x00001856:    2201        ."      MOVS     r2,#1
        0x00001858:    4628        (F      MOV      r0,r5
        0x0000185a:    f000fc2f    ../.    BL       I2CMasterInitExpClk ; 0x20bc
        0x0000185e:    4620         F      MOV      r0,r4
        0x00001860:    f000fd66    ..f.    BL       IntEnable ; 0x2330
        0x00001864:    4628        (F      MOV      r0,r5
        0x00001866:    e8bd4070    ..p@    POP      {r4-r6,lr}
        0x0000186a:    2101        .!      MOVS     r1,#1
        0x0000186c:    f000bc61    ..a.    B.W      I2CMasterIntEnableEx ; 0x2132
    i.I2CMIntHandler
    I2CMIntHandler
        0x00001870:    e92d41f0    -..A    PUSH     {r4-r8,lr}
        0x00001874:    4605        .F      MOV      r5,r0
        0x00001876:    6800        .h      LDR      r0,[r0,#0]
        0x00001878:    f000fc4a    ..J.    BL       I2CMasterIntClear ; 0x2110
        0x0000187c:    6828        (h      LDR      r0,[r5,#0]
        0x0000187e:    6846        Fh      LDR      r6,[r0,#4]
        0x00001880:    7a29        )z      LDRB     r1,[r5,#8]
        0x00001882:    f0160f12    ....    TST      r6,#0x12
        0x00001886:    ebc101c1    ....    RSB      r1,r1,r1,LSL #3
        0x0000188a:    eb050181    ....    ADD      r1,r5,r1,LSL #2
        0x0000188e:    f101040c    ....    ADD      r4,r1,#0xc
        0x00001892:    f04f070a    O...    MOV      r7,#0xa
        0x00001896:    bf1c        ..      ITT      NE
        0x00001898:    79e9        .y      LDRBNE   r1,[r5,#7]
        0x0000189a:    2900        .)      CMPNE    r1,#0
        0x0000189c:    d006        ..      BEQ      0x18ac ; I2CMIntHandler + 60
        0x0000189e:    f0160f40    ..@.    TST      r6,#0x40
        0x000018a2:    bf1c        ..      ITT      NE
        0x000018a4:    2104        .!      MOVNE    r1,#4
        0x000018a6:    f000fbe8    ....    BLNE     I2CMasterControl ; 0x207a
        0x000018aa:    71ef        .q      STRB     r7,[r5,#7]
        0x000018ac:    79e8        .y      LDRB     r0,[r5,#7]
        0x000018ae:    280b        .(      CMP      r0,#0xb
        0x000018b0:    d2fc        ..      BCS      0x18ac ; I2CMIntHandler + 60
        0x000018b2:    e8dff000    ....    TBB      [pc,r0]
    $d
        0x000018b6:    4e06        .N      DCW    19974
        0x000018b8:    cfc08d6e    n...    DCD    3485502830
        0x000018bc:    f2f3f4de    ....    DCD    4076074206
        0x000018c0:    00f1        ..      DCW    241
    $t
        0x000018c2:    7a28        (z      LDRB     r0,[r5,#8]
        0x000018c4:    7a69        iz      LDRB     r1,[r5,#9]
        0x000018c6:    4288        .B      CMP      r0,r1
        0x000018c8:    bf08        ..      IT       EQ
        0x000018ca:    e8bd81f0    ....    POPEQ    {r4-r8,pc}
        0x000018ce:    8920         .      LDRH     r0,[r4,#8]
        0x000018d0:    7821        !x      LDRB     r1,[r4,#0]
        0x000018d2:    2800        .(      CMP      r0,#0
        0x000018d4:    6828        (h      LDR      r0,[r5,#0]
        0x000018d6:    d026        &.      BEQ      0x1926 ; I2CMIntHandler + 182
        0x000018d8:    2200        ."      MOVS     r2,#0
        0x000018da:    f000fc41    ..A.    BL       I2CMasterSlaveAddrSet ; 0x2160
        0x000018de:    6860        `h      LDR      r0,[r4,#4]
        0x000018e0:    7801        .x      LDRB     r1,[r0,#0]
        0x000018e2:    6828        (h      LDR      r0,[r5,#0]
        0x000018e4:    f000fbcd    ....    BL       I2CMasterDataPut ; 0x2082
        0x000018e8:    8920         .      LDRH     r0,[r4,#8]
        0x000018ea:    2801        .(      CMP      r0,#1
        0x000018ec:    d00a        ..      BEQ      0x1904 ; I2CMIntHandler + 148
        0x000018ee:    2103        .!      MOVS     r1,#3
        0x000018f0:    6828        (h      LDR      r0,[r5,#0]
        0x000018f2:    f000fbc2    ....    BL       I2CMasterControl ; 0x207a
        0x000018f6:    2001        .       MOVS     r0,#1
        0x000018f8:    8168        h.      STRH     r0,[r5,#0xa]
        0x000018fa:    8920         .      LDRH     r0,[r4,#8]
        0x000018fc:    2802        .(      CMP      r0,#2
        0x000018fe:    bf18        ..      IT       NE
        0x00001900:    2001        .       MOVNE    r0,#1
        0x00001902:    e043        C.      B        0x198c ; I2CMIntHandler + 284
        0x00001904:    8a20         .      LDRH     r0,[r4,#0x10]
        0x00001906:    2800        .(      CMP      r0,#0
        0x00001908:    6828        (h      LDR      r0,[r5,#0]
        0x0000190a:    d006        ..      BEQ      0x191a ; I2CMIntHandler + 170
        0x0000190c:    2103        .!      MOVS     r1,#3
        0x0000190e:    f000fbb4    ....    BL       I2CMasterControl ; 0x207a
        0x00001912:    8a20         .      LDRH     r0,[r4,#0x10]
        0x00001914:    2801        .(      CMP      r0,#1
        0x00001916:    d077        w.      BEQ      0x1a08 ; I2CMIntHandler + 408
        0x00001918:    e080        ..      B        0x1a1c ; I2CMIntHandler + 428
        0x0000191a:    2107        .!      MOVS     r1,#7
        0x0000191c:    f000fbad    ....    BL       I2CMasterControl ; 0x207a
        0x00001920:    71ef        .q      STRB     r7,[r5,#7]
        0x00001922:    e8bd81f0    ....    POP      {r4-r8,pc}
        0x00001926:    2201        ."      MOVS     r2,#1
        0x00001928:    f000fc1a    ....    BL       I2CMasterSlaveAddrSet ; 0x2160
        0x0000192c:    2000        .       MOVS     r0,#0
        0x0000192e:    8168        h.      STRH     r0,[r5,#0xa]
        0x00001930:    8a20         .      LDRH     r0,[r4,#0x10]
        0x00001932:    2801        .(      CMP      r0,#1
        0x00001934:    6828        (h      LDR      r0,[r5,#0]
        0x00001936:    d007        ..      BEQ      0x1948 ; I2CMIntHandler + 216
        0x00001938:    210b        .!      MOVS     r1,#0xb
        0x0000193a:    f000fb9e    ....    BL       I2CMasterControl ; 0x207a
        0x0000193e:    8a20         .      LDRH     r0,[r4,#0x10]
        0x00001940:    2802        .(      CMP      r0,#2
        0x00001942:    d06e        n.      BEQ      0x1a22 ; I2CMIntHandler + 434
        0x00001944:    2006        .       MOVS     r0,#6
        0x00001946:    e021        !.      B        0x198c ; I2CMIntHandler + 284
        0x00001948:    2107        .!      MOVS     r1,#7
        0x0000194a:    f000fb96    ....    BL       I2CMasterControl ; 0x207a
        0x0000194e:    2009        .       MOVS     r0,#9
        0x00001950:    e01c        ..      B        0x198c ; I2CMIntHandler + 284
        0x00001952:    8968        h.      LDRH     r0,[r5,#0xa]
        0x00001954:    8961        a.      LDRH     r1,[r4,#0xa]
        0x00001956:    4288        .B      CMP      r0,r1
        0x00001958:    d105        ..      BNE      0x1966 ; I2CMIntHandler + 246
        0x0000195a:    2003        .       MOVS     r0,#3
        0x0000195c:    71e8        .q      STRB     r0,[r5,#7]
        0x0000195e:    6962        bi      LDR      r2,[r4,#0x14]
        0x00001960:    bb12        ..      CBNZ     r2,0x19a8 ; I2CMIntHandler + 312
        0x00001962:    e8bd81f0    ....    POP      {r4-r8,pc}
        0x00001966:    6861        ah      LDR      r1,[r4,#4]
        0x00001968:    5c09        .\      LDRB     r1,[r1,r0]
        0x0000196a:    6828        (h      LDR      r0,[r5,#0]
        0x0000196c:    f000fb89    ....    BL       I2CMasterDataPut ; 0x2082
        0x00001970:    8968        h.      LDRH     r0,[r5,#0xa]
        0x00001972:    2101        .!      MOVS     r1,#1
        0x00001974:    1c40        @.      ADDS     r0,r0,#1
        0x00001976:    8168        h.      STRH     r0,[r5,#0xa]
        0x00001978:    6828        (h      LDR      r0,[r5,#0]
        0x0000197a:    f000fb7e    ..~.    BL       I2CMasterControl ; 0x207a
        0x0000197e:    8920         .      LDRH     r0,[r4,#8]
        0x00001980:    8969        i.      LDRH     r1,[r5,#0xa]
        0x00001982:    1a40        @.      SUBS     r0,r0,r1
        0x00001984:    2801        .(      CMP      r0,#1
        0x00001986:    d03d        =.      BEQ      0x1a04 ; I2CMIntHandler + 404
        0x00001988:    e8bd81f0    ....    POP      {r4-r8,pc}
        0x0000198c:    71e8        .q      STRB     r0,[r5,#7]
        0x0000198e:    e8bd81f0    ....    POP      {r4-r8,pc}
        0x00001992:    8968        h.      LDRH     r0,[r5,#0xa]
        0x00001994:    8961        a.      LDRH     r1,[r4,#0xa]
        0x00001996:    4288        .B      CMP      r0,r1
        0x00001998:    d10b        ..      BNE      0x19b2 ; I2CMIntHandler + 322
        0x0000199a:    2003        .       MOVS     r0,#3
        0x0000199c:    71e8        .q      STRB     r0,[r5,#7]
        0x0000199e:    6962        bi      LDR      r2,[r4,#0x14]
        0x000019a0:    2a00        .*      CMP      r2,#0
        0x000019a2:    bf08        ..      IT       EQ
        0x000019a4:    e8bd81f0    ....    POPEQ    {r4-r8,pc}
        0x000019a8:    2105        .!      MOVS     r1,#5
        0x000019aa:    69a0        .i      LDR      r0,[r4,#0x18]
        0x000019ac:    e8bd41f0    ...A    POP      {r4-r8,lr}
        0x000019b0:    4710        .G      BX       r2
        0x000019b2:    6861        ah      LDR      r1,[r4,#4]
        0x000019b4:    5c09        .\      LDRB     r1,[r1,r0]
        0x000019b6:    6828        (h      LDR      r0,[r5,#0]
        0x000019b8:    f000fb63    ..c.    BL       I2CMasterDataPut ; 0x2082
        0x000019bc:    8a20         .      LDRH     r0,[r4,#0x10]
        0x000019be:    b378        x.      CBZ      r0,0x1a20 ; I2CMIntHandler + 432
        0x000019c0:    2101        .!      MOVS     r1,#1
        0x000019c2:    6828        (h      LDR      r0,[r5,#0]
        0x000019c4:    f000fb59    ..Y.    BL       I2CMasterControl ; 0x207a
        0x000019c8:    8a20         .      LDRH     r0,[r4,#0x10]
        0x000019ca:    2801        .(      CMP      r0,#1
        0x000019cc:    d031        1.      BEQ      0x1a32 ; I2CMIntHandler + 450
        0x000019ce:    e025        %.      B        0x1a1c ; I2CMIntHandler + 428
        0x000019d0:    8920         .      LDRH     r0,[r4,#8]
        0x000019d2:    8961        a.      LDRH     r1,[r4,#0xa]
        0x000019d4:    1a40        @.      SUBS     r0,r0,r1
        0x000019d6:    8120         .      STRH     r0,[r4,#8]
        0x000019d8:    6860        `h      LDR      r0,[r4,#4]
        0x000019da:    7801        .x      LDRB     r1,[r0,#0]
        0x000019dc:    6828        (h      LDR      r0,[r5,#0]
        0x000019de:    f000fb50    ..P.    BL       I2CMasterDataPut ; 0x2082
        0x000019e2:    2601        .&      MOVS     r6,#1
        0x000019e4:    816e        n.      STRH     r6,[r5,#0xa]
        0x000019e6:    8920         .      LDRH     r0,[r4,#8]
        0x000019e8:    2801        .(      CMP      r0,#1
        0x000019ea:    d00e        ..      BEQ      0x1a0a ; I2CMIntHandler + 410
        0x000019ec:    2101        .!      MOVS     r1,#1
        0x000019ee:    6828        (h      LDR      r0,[r5,#0]
        0x000019f0:    f000fb43    ..C.    BL       I2CMasterControl ; 0x207a
        0x000019f4:    8920         .      LDRH     r0,[r4,#8]
        0x000019f6:    8969        i.      LDRH     r1,[r5,#0xa]
        0x000019f8:    1a40        @.      SUBS     r0,r0,r1
        0x000019fa:    2801        .(      CMP      r0,#1
        0x000019fc:    bf1c        ..      ITT      NE
        0x000019fe:    71ee        .q      STRBNE   r6,[r5,#7]
        0x00001a00:    e8bd81f0    ....    POPNE    {r4-r8,pc}
        0x00001a04:    2002        .       MOVS     r0,#2
        0x00001a06:    e7c1        ..      B        0x198c ; I2CMIntHandler + 284
        0x00001a08:    e013        ..      B        0x1a32 ; I2CMIntHandler + 450
        0x00001a0a:    8a20         .      LDRH     r0,[r4,#0x10]
        0x00001a0c:    b140        @.      CBZ      r0,0x1a20 ; I2CMIntHandler + 432
        0x00001a0e:    2101        .!      MOVS     r1,#1
        0x00001a10:    6828        (h      LDR      r0,[r5,#0]
        0x00001a12:    f000fb32    ..2.    BL       I2CMasterControl ; 0x207a
        0x00001a16:    8a20         .      LDRH     r0,[r4,#0x10]
        0x00001a18:    2801        .(      CMP      r0,#1
        0x00001a1a:    d00a        ..      BEQ      0x1a32 ; I2CMIntHandler + 450
        0x00001a1c:    2005        .       MOVS     r0,#5
        0x00001a1e:    e7b5        ..      B        0x198c ; I2CMIntHandler + 284
        0x00001a20:    e000        ..      B        0x1a24 ; I2CMIntHandler + 436
        0x00001a22:    e046        F.      B        0x1ab2 ; I2CMIntHandler + 578
        0x00001a24:    2105        .!      MOVS     r1,#5
        0x00001a26:    6828        (h      LDR      r0,[r5,#0]
        0x00001a28:    f000fb27    ..'.    BL       I2CMasterControl ; 0x207a
        0x00001a2c:    71ef        .q      STRB     r7,[r5,#7]
        0x00001a2e:    e8bd81f0    ....    POP      {r4-r8,pc}
        0x00001a32:    2004        .       MOVS     r0,#4
        0x00001a34:    e7aa        ..      B        0x198c ; I2CMIntHandler + 284
        0x00001a36:    7821        !x      LDRB     r1,[r4,#0]
        0x00001a38:    2201        ."      MOVS     r2,#1
        0x00001a3a:    6828        (h      LDR      r0,[r5,#0]
        0x00001a3c:    f000fb90    ....    BL       I2CMasterSlaveAddrSet ; 0x2160
        0x00001a40:    2107        .!      MOVS     r1,#7
        0x00001a42:    6828        (h      LDR      r0,[r5,#0]
        0x00001a44:    f000fb19    ....    BL       I2CMasterControl ; 0x207a
        0x00001a48:    2000        .       MOVS     r0,#0
        0x00001a4a:    8168        h.      STRH     r0,[r5,#0xa]
        0x00001a4c:    2009        .       MOVS     r0,#9
        0x00001a4e:    71e8        .q      STRB     r0,[r5,#7]
        0x00001a50:    e8bd81f0    ....    POP      {r4-r8,pc}
        0x00001a54:    7821        !x      LDRB     r1,[r4,#0]
        0x00001a56:    2201        ."      MOVS     r2,#1
        0x00001a58:    6828        (h      LDR      r0,[r5,#0]
        0x00001a5a:    f000fb81    ....    BL       I2CMasterSlaveAddrSet ; 0x2160
        0x00001a5e:    210b        .!      MOVS     r1,#0xb
        0x00001a60:    6828        (h      LDR      r0,[r5,#0]
        0x00001a62:    f000fb0a    ....    BL       I2CMasterControl ; 0x207a
        0x00001a66:    2000        .       MOVS     r0,#0
        0x00001a68:    8168        h.      STRH     r0,[r5,#0xa]
        0x00001a6a:    8a20         .      LDRH     r0,[r4,#0x10]
        0x00001a6c:    2802        .(      CMP      r0,#2
        0x00001a6e:    d020         .      BEQ      0x1ab2 ; I2CMIntHandler + 578
        0x00001a70:    e768        h.      B        0x1944 ; I2CMIntHandler + 212
        0x00001a72:    6828        (h      LDR      r0,[r5,#0]
        0x00001a74:    f000fb03    ....    BL       I2CMasterDataGet ; 0x207e
        0x00001a78:    896a        j.      LDRH     r2,[r5,#0xa]
        0x00001a7a:    68e1        .h      LDR      r1,[r4,#0xc]
        0x00001a7c:    5488        .T      STRB     r0,[r1,r2]
        0x00001a7e:    8968        h.      LDRH     r0,[r5,#0xa]
        0x00001a80:    1c40        @.      ADDS     r0,r0,#1
        0x00001a82:    b280        ..      UXTH     r0,r0
        0x00001a84:    8168        h.      STRH     r0,[r5,#0xa]
        0x00001a86:    8a61        a.      LDRH     r1,[r4,#0x12]
        0x00001a88:    4288        .B      CMP      r0,r1
        0x00001a8a:    d109        ..      BNE      0x1aa0 ; I2CMIntHandler + 560
        0x00001a8c:    2008        .       MOVS     r0,#8
        0x00001a8e:    71e8        .q      STRB     r0,[r5,#7]
        0x00001a90:    6962        bi      LDR      r2,[r4,#0x14]
        0x00001a92:    bb12        ..      CBNZ     r2,0x1ada ; I2CMIntHandler + 618
        0x00001a94:    e8bd81f0    ....    POP      {r4-r8,pc}
        0x00001a98:    e045        E.      B        0x1b26 ; I2CMIntHandler + 694
        0x00001a9a:    e03c        <.      B        0x1b16 ; I2CMIntHandler + 678
        0x00001a9c:    e022        ".      B        0x1ae4 ; I2CMIntHandler + 628
        0x00001a9e:    e00a        ..      B        0x1ab6 ; I2CMIntHandler + 582
        0x00001aa0:    2109        .!      MOVS     r1,#9
        0x00001aa2:    6828        (h      LDR      r0,[r5,#0]
        0x00001aa4:    f000fae9    ....    BL       I2CMasterControl ; 0x207a
        0x00001aa8:    8a20         .      LDRH     r0,[r4,#0x10]
        0x00001aaa:    8969        i.      LDRH     r1,[r5,#0xa]
        0x00001aac:    1a40        @.      SUBS     r0,r0,r1
        0x00001aae:    2802        .(      CMP      r0,#2
        0x00001ab0:    d1f0        ..      BNE      0x1a94 ; I2CMIntHandler + 548
        0x00001ab2:    2007        .       MOVS     r0,#7
        0x00001ab4:    e76a        j.      B        0x198c ; I2CMIntHandler + 284
        0x00001ab6:    6828        (h      LDR      r0,[r5,#0]
        0x00001ab8:    f000fae1    ....    BL       I2CMasterDataGet ; 0x207e
        0x00001abc:    896a        j.      LDRH     r2,[r5,#0xa]
        0x00001abe:    68e1        .h      LDR      r1,[r4,#0xc]
        0x00001ac0:    5488        .T      STRB     r0,[r1,r2]
        0x00001ac2:    8968        h.      LDRH     r0,[r5,#0xa]
        0x00001ac4:    1c40        @.      ADDS     r0,r0,#1
        0x00001ac6:    b280        ..      UXTH     r0,r0
        0x00001ac8:    8168        h.      STRH     r0,[r5,#0xa]
        0x00001aca:    8a61        a.      LDRH     r1,[r4,#0x12]
        0x00001acc:    4288        .B      CMP      r0,r1
        0x00001ace:    d11c        ..      BNE      0x1b0a ; I2CMIntHandler + 666
        0x00001ad0:    2008        .       MOVS     r0,#8
        0x00001ad2:    71e8        .q      STRB     r0,[r5,#7]
        0x00001ad4:    6962        bi      LDR      r2,[r4,#0x14]
        0x00001ad6:    2a00        .*      CMP      r2,#0
        0x00001ad8:    d0dc        ..      BEQ      0x1a94 ; I2CMIntHandler + 548
        0x00001ada:    69a0        .i      LDR      r0,[r4,#0x18]
        0x00001adc:    e8bd41f0    ...A    POP      {r4-r8,lr}
        0x00001ae0:    2106        .!      MOVS     r1,#6
        0x00001ae2:    4710        .G      BX       r2
        0x00001ae4:    8a20         .      LDRH     r0,[r4,#0x10]
        0x00001ae6:    8a61        a.      LDRH     r1,[r4,#0x12]
        0x00001ae8:    1a40        @.      SUBS     r0,r0,r1
        0x00001aea:    8220         .      STRH     r0,[r4,#0x10]
        0x00001aec:    2000        .       MOVS     r0,#0
        0x00001aee:    8168        h.      STRH     r0,[r5,#0xa]
        0x00001af0:    8a20         .      LDRH     r0,[r4,#0x10]
        0x00001af2:    2801        .(      CMP      r0,#1
        0x00001af4:    d009        ..      BEQ      0x1b0a ; I2CMIntHandler + 666
        0x00001af6:    2109        .!      MOVS     r1,#9
        0x00001af8:    6828        (h      LDR      r0,[r5,#0]
        0x00001afa:    f000fabe    ....    BL       I2CMasterControl ; 0x207a
        0x00001afe:    8a20         .      LDRH     r0,[r4,#0x10]
        0x00001b00:    8969        i.      LDRH     r1,[r5,#0xa]
        0x00001b02:    1a40        @.      SUBS     r0,r0,r1
        0x00001b04:    2802        .(      CMP      r0,#2
        0x00001b06:    d0d4        ..      BEQ      0x1ab2 ; I2CMIntHandler + 578
        0x00001b08:    e71c        ..      B        0x1944 ; I2CMIntHandler + 212
        0x00001b0a:    2105        .!      MOVS     r1,#5
        0x00001b0c:    6828        (h      LDR      r0,[r5,#0]
        0x00001b0e:    f000fab4    ....    BL       I2CMasterControl ; 0x207a
        0x00001b12:    2009        .       MOVS     r0,#9
        0x00001b14:    e73a        :.      B        0x198c ; I2CMIntHandler + 284
        0x00001b16:    6828        (h      LDR      r0,[r5,#0]
        0x00001b18:    f000fab1    ....    BL       I2CMasterDataGet ; 0x207e
        0x00001b1c:    896a        j.      LDRH     r2,[r5,#0xa]
        0x00001b1e:    68e1        .h      LDR      r1,[r4,#0xc]
        0x00001b20:    5488        .T      STRB     r0,[r1,r2]
        0x00001b22:    71ef        .q      STRB     r7,[r5,#7]
        0x00001b24:    e6c2        ..      B        0x18ac ; I2CMIntHandler + 60
        0x00001b26:    e9d42305    ...#    LDRD     r2,r3,[r4,#0x14]
        0x00001b2a:    7a28        (z      LDRB     r0,[r5,#8]
        0x00001b2c:    1c40        @.      ADDS     r0,r0,#1
        0x00001b2e:    b2c0        ..      UXTB     r0,r0
        0x00001b30:    7228        (r      STRB     r0,[r5,#8]
        0x00001b32:    280a        .(      CMP      r0,#0xa
        0x00001b34:    bf04        ..      ITT      EQ
        0x00001b36:    2100        .!      MOVEQ    r1,#0
        0x00001b38:    7229        )r      STRBEQ   r1,[r5,#8]
        0x00001b3a:    b15a        Z.      CBZ      r2,0x1b54 ; I2CMIntHandler + 740
        0x00001b3c:    f0160f12    ....    TST      r6,#0x12
        0x00001b40:    bf08        ..      IT       EQ
        0x00001b42:    2100        .!      MOVEQ    r1,#0
        0x00001b44:    d004        ..      BEQ      0x1b50 ; I2CMIntHandler + 736
        0x00001b46:    f0160f10    ....    TST      r6,#0x10
        0x00001b4a:    bf18        ..      IT       NE
        0x00001b4c:    2103        .!      MOVNE    r1,#3
        0x00001b4e:    d011        ..      BEQ      0x1b74 ; I2CMIntHandler + 772
        0x00001b50:    4618        .F      MOV      r0,r3
        0x00001b52:    4790        .G      BLX      r2
        0x00001b54:    2100        .!      MOVS     r1,#0
        0x00001b56:    71e9        .q      STRB     r1,[r5,#7]
        0x00001b58:    f0160f12    ....    TST      r6,#0x12
        0x00001b5c:    bf18        ..      IT       NE
        0x00001b5e:    f0160f40    ..@.    TSTNE    r6,#0x40
        0x00001b62:    d197        ..      BNE      0x1a94 ; I2CMIntHandler + 548
        0x00001b64:    7a28        (z      LDRB     r0,[r5,#8]
        0x00001b66:    ebc000c0    ....    RSB      r0,r0,r0,LSL #3
        0x00001b6a:    eb050080    ....    ADD      r0,r5,r0,LSL #2
        0x00001b6e:    f100040c    ....    ADD      r4,r0,#0xc
        0x00001b72:    e69b        ..      B        0x18ac ; I2CMIntHandler + 60
        0x00001b74:    f0160f04    ....    TST      r6,#4
        0x00001b78:    bf18        ..      IT       NE
        0x00001b7a:    2101        .!      MOVNE    r1,#1
        0x00001b7c:    d1e8        ..      BNE      0x1b50 ; I2CMIntHandler + 736
        0x00001b7e:    f0160f08    ....    TST      r6,#8
        0x00001b82:    bf14        ..      ITE      NE
        0x00001b84:    2102        .!      MOVNE    r1,#2
        0x00001b86:    2104        .!      MOVEQ    r1,#4
        0x00001b88:    e7e2        ..      B        0x1b50 ; I2CMIntHandler + 736
    i.I2CMRead
    I2CMRead
        0x00001b8a:    b570        p.      PUSH     {r4-r6,lr}
        0x00001b8c:    b086        ..      SUB      sp,sp,#0x18
        0x00001b8e:    f10d0e28    ..(.    ADD      lr,sp,#0x28
        0x00001b92:    e8be1070    ..p.    LDM      lr!,{r4-r6,r12}
        0x00001b96:    e9cd3400    ...4    STRD     r3,r4,[sp,#0]
        0x00001b9a:    e9cd6c04    ...l    STRD     r6,r12,[sp,#0x10]
        0x00001b9e:    9502        ..      STR      r5,[sp,#8]
        0x00001ba0:    9503        ..      STR      r5,[sp,#0xc]
        0x00001ba2:    f7fffe03    ....    BL       I2CMCommand ; 0x17ac
        0x00001ba6:    b006        ..      ADD      sp,sp,#0x18
        0x00001ba8:    bd70        p.      POP      {r4-r6,pc}
        0x00001baa:    0000        ..      MOVS     r0,r0
    i.I2CMRead16BE
    I2CMRead16BE
        0x00001bac:    b570        p.      PUSH     {r4-r6,lr}
        0x00001bae:    b086        ..      SUB      sp,sp,#0x18
        0x00001bb0:    460c        .F      MOV      r4,r1
        0x00001bb2:    e9dd1c0a    ....    LDRD     r1,r12,[sp,#0x28]
        0x00001bb6:    e9dd560c    ...V    LDRD     r5,r6,[sp,#0x30]
        0x00001bba:    e9c04100    ...A    STRD     r4,r1,[r0,#0]
        0x00001bbe:    f8a0c008    ....    STRH     r12,[r0,#8]
        0x00001bc2:    e9c05603    ...V    STRD     r5,r6,[r0,#0xc]
        0x00001bc6:    700b        .p      STRB     r3,[r1,#0]
        0x00001bc8:    4625        %F      MOV      r5,r4
        0x00001bca:    4611        .F      MOV      r1,r2
        0x00001bcc:    6844        Dh      LDR      r4,[r0,#4]
        0x00001bce:    ea4f024c    O.L.    LSL      r2,r12,#1
        0x00001bd2:    f8dfc024    ..$.    LDR      r12,[pc,#36] ; [0x1bf8] = 0x1bfd
        0x00001bd6:    9005        ..      STR      r0,[sp,#0x14]
        0x00001bd8:    9202        ..      STR      r2,[sp,#8]
        0x00001bda:    e9cd2c03    ...,    STRD     r2,r12,[sp,#0xc]
        0x00001bde:    2301        .#      MOVS     r3,#1
        0x00001be0:    e9cd3400    ...4    STRD     r3,r4,[sp,#0]
        0x00001be4:    4622        "F      MOV      r2,r4
        0x00001be6:    4628        (F      MOV      r0,r5
        0x00001be8:    f7fffde0    ....    BL       I2CMCommand ; 0x17ac
        0x00001bec:    2800        .(      CMP      r0,#0
        0x00001bee:    bf18        ..      IT       NE
        0x00001bf0:    2001        .       MOVNE    r0,#1
        0x00001bf2:    b006        ..      ADD      sp,sp,#0x18
        0x00001bf4:    bd70        p.      POP      {r4-r6,pc}
    $d
        0x00001bf6:    0000        ..      DCW    0
        0x00001bf8:    00001bfd    ....    DCD    7165
    $t
    i.I2CMRead16BECallback
    I2CMRead16BECallback
        0x00001bfc:    b999        ..      CBNZ     r1,0x1c26 ; I2CMRead16BECallback + 42
        0x00001bfe:    8902        ..      LDRH     r2,[r0,#8]
        0x00001c00:    1e53        S.      SUBS     r3,r2,#1
        0x00001c02:    8103        ..      STRH     r3,[r0,#8]
        0x00001c04:    b17a        z.      CBZ      r2,0x1c26 ; I2CMRead16BECallback + 42
        0x00001c06:    6842        Bh      LDR      r2,[r0,#4]
        0x00001c08:    7813        .x      LDRB     r3,[r2,#0]
        0x00001c0a:    f892c001    ....    LDRB     r12,[r2,#1]
        0x00001c0e:    f882c000    ....    STRB     r12,[r2,#0]
        0x00001c12:    6842        Bh      LDR      r2,[r0,#4]
        0x00001c14:    7053        Sp      STRB     r3,[r2,#1]
        0x00001c16:    6842        Bh      LDR      r2,[r0,#4]
        0x00001c18:    1c92        ..      ADDS     r2,r2,#2
        0x00001c1a:    6042        B`      STR      r2,[r0,#4]
        0x00001c1c:    8902        ..      LDRH     r2,[r0,#8]
        0x00001c1e:    1e53        S.      SUBS     r3,r2,#1
        0x00001c20:    8103        ..      STRH     r3,[r0,#8]
        0x00001c22:    2a00        .*      CMP      r2,#0
        0x00001c24:    d1ef        ..      BNE      0x1c06 ; I2CMRead16BECallback + 10
        0x00001c26:    68c2        .h      LDR      r2,[r0,#0xc]
        0x00001c28:    2a00        .*      CMP      r2,#0
        0x00001c2a:    bf08        ..      IT       EQ
        0x00001c2c:    4770        pG      BXEQ     lr
        0x00001c2e:    6900        .i      LDR      r0,[r0,#0x10]
        0x00001c30:    4710        .G      BX       r2
    i.I2CMReadBatched
    I2CMReadBatched
        0x00001c32:    e92d41f0    -..A    PUSH     {r4-r8,lr}
        0x00001c36:    b086        ..      SUB      sp,sp,#0x18
        0x00001c38:    f10d0e30    ..0.    ADD      lr,sp,#0x30
        0x00001c3c:    e8be11f0    ....    LDM      lr!,{r4-r8,r12}
        0x00001c40:    e88d11f0    ....    STM      sp,{r4-r8,r12}
        0x00001c44:    f7fffdb2    ....    BL       I2CMCommand ; 0x17ac
        0x00001c48:    b006        ..      ADD      sp,sp,#0x18
        0x00001c4a:    e8bd81f0    ....    POP      {r4-r8,pc}
    i.I2CMReadModifyWrite16BE
    I2CMReadModifyWrite16BE
        0x00001c4e:    b5f0        ..      PUSH     {r4-r7,lr}
        0x00001c50:    b085        ..      SUB      sp,sp,#0x14
        0x00001c52:    e9dd4c0a    ...L    LDRD     r4,r12,[sp,#0x28]
        0x00001c56:    f00c07ff    ....    AND      r7,r12,#0xff
        0x00001c5a:    f3cc2c07    ...,    UBFX     r12,r12,#8,#8
        0x00001c5e:    ea4c2c07    L..,    ORR      r12,r12,r7,LSL #8
        0x00001c62:    e9dd560c    ...V    LDRD     r5,r6,[sp,#0x30]
        0x00001c66:    b2e7        ..      UXTB     r7,r4
        0x00001c68:    f3c42407    ...$    UBFX     r4,r4,#8,#8
        0x00001c6c:    ea442407    D..$    ORR      r4,r4,r7,LSL #8
        0x00001c70:    e9cd4c00    ...L    STRD     r4,r12,[sp,#0]
        0x00001c74:    e9cd5602    ...V    STRD     r5,r6,[sp,#8]
        0x00001c78:    f000f802    ....    BL       I2CMReadModifyWrite16LE ; 0x1c80
        0x00001c7c:    b005        ..      ADD      sp,sp,#0x14
        0x00001c7e:    bdf0        ..      POP      {r4-r7,pc}
    i.I2CMReadModifyWrite16LE
    I2CMReadModifyWrite16LE
        0x00001c80:    b570        p.      PUSH     {r4-r6,lr}
        0x00001c82:    b086        ..      SUB      sp,sp,#0x18
        0x00001c84:    468c        .F      MOV      r12,r1
        0x00001c86:    e9dd410a    ...A    LDRD     r4,r1,[sp,#0x28]
        0x00001c8a:    e9dd560c    ...V    LDRD     r5,r6,[sp,#0x30]
        0x00001c8e:    f8c0c000    ....    STR      r12,[r0,#0]
        0x00001c92:    7242        Br      STRB     r2,[r0,#9]
        0x00001c94:    8144        D.      STRH     r4,[r0,#0xa]
        0x00001c96:    8181        ..      STRH     r1,[r0,#0xc]
        0x00001c98:    e9c05604    ...V    STRD     r5,r6,[r0,#0x10]
        0x00001c9c:    7103        .q      STRB     r3,[r0,#4]
        0x00001c9e:    b1d4        ..      CBZ      r4,0x1cd6 ; I2CMReadModifyWrite16LE + 86
        0x00001ca0:    2301        .#      MOVS     r3,#1
        0x00001ca2:    7203        .r      STRB     r3,[r0,#8]
        0x00001ca4:    4c18        .L      LDR      r4,[pc,#96] ; [0x1d08] = 0x1d0d
        0x00001ca6:    e9cd4004    ...@    STRD     r4,r0,[sp,#0x10]
        0x00001caa:    4666        fF      MOV      r6,r12
        0x00001cac:    1d45        E.      ADDS     r5,r0,#5
        0x00001cae:    4611        .F      MOV      r1,r2
        0x00001cb0:    f04f0c02    O...    MOV      r12,#2
        0x00001cb4:    e9cd3500    ...5    STRD     r3,r5,[sp,#0]
        0x00001cb8:    1d02        ..      ADDS     r2,r0,#4
        0x00001cba:    f8cdc008    ....    STR      r12,[sp,#8]
        0x00001cbe:    f8cdc00c    ....    STR      r12,[sp,#0xc]
        0x00001cc2:    4630        0F      MOV      r0,r6
        0x00001cc4:    f7fffd72    ..r.    BL       I2CMCommand ; 0x17ac
        0x00001cc8:    2800        .(      CMP      r0,#0
        0x00001cca:    bf04        ..      ITT      EQ
        0x00001ccc:    b006        ..      ADDEQ    sp,sp,#0x18
        0x00001cce:    bd70        p.      POPEQ    {r4-r6,pc}
        0x00001cd0:    2001        .       MOVS     r0,#1
        0x00001cd2:    b006        ..      ADD      sp,sp,#0x18
        0x00001cd4:    bd70        p.      POP      {r4-r6,pc}
        0x00001cd6:    2302        .#      MOVS     r3,#2
        0x00001cd8:    7203        .r      STRB     r3,[r0,#8]
        0x00001cda:    7141        Aq      STRB     r1,[r0,#5]
        0x00001cdc:    0a09        ..      LSRS     r1,r1,#8
        0x00001cde:    7181        .q      STRB     r1,[r0,#6]
        0x00001ce0:    4665        eF      MOV      r5,r12
        0x00001ce2:    f8dfc024    ..$.    LDR      r12,[pc,#36] ; [0x1d08] = 0x1d0d
        0x00001ce6:    2400        .$      MOVS     r4,#0
        0x00001ce8:    9005        ..      STR      r0,[sp,#0x14]
        0x00001cea:    9402        ..      STR      r4,[sp,#8]
        0x00001cec:    e9cd4c03    ...L    STRD     r4,r12,[sp,#0xc]
        0x00001cf0:    2303        .#      MOVS     r3,#3
        0x00001cf2:    4611        .F      MOV      r1,r2
        0x00001cf4:    e9cd3400    ...4    STRD     r3,r4,[sp,#0]
        0x00001cf8:    1d02        ..      ADDS     r2,r0,#4
        0x00001cfa:    4628        (F      MOV      r0,r5
        0x00001cfc:    f7fffd56    ..V.    BL       I2CMCommand ; 0x17ac
        0x00001d00:    2800        .(      CMP      r0,#0
        0x00001d02:    d1e5        ..      BNE      0x1cd0 ; I2CMReadModifyWrite16LE + 80
        0x00001d04:    b006        ..      ADD      sp,sp,#0x18
        0x00001d06:    bd70        p.      POP      {r4-r6,pc}
    $d
        0x00001d08:    00001d0d    ....    DCD    7437
    $t
    i.I2CMReadModifyWrite16LECallback
    I2CMReadModifyWrite16LECallback
        0x00001d0c:    b530        0.      PUSH     {r4,r5,lr}
        0x00001d0e:    b087        ..      SUB      sp,sp,#0x1c
        0x00001d10:    4604        .F      MOV      r4,r0
        0x00001d12:    f04f0c00    O...    MOV      r12,#0
        0x00001d16:    2900        .)      CMP      r1,#0
        0x00001d18:    bf18        ..      IT       NE
        0x00001d1a:    f884c008    ....    STRBNE   r12,[r4,#8]
        0x00001d1e:    7a20         z      LDRB     r0,[r4,#8]
        0x00001d20:    2801        .(      CMP      r0,#1
        0x00001d22:    d010        ..      BEQ      0x1d46 ; I2CMReadModifyWrite16LECallback + 58
        0x00001d24:    2802        .(      CMP      r0,#2
        0x00001d26:    bf0f        ..      ITEEE    EQ
        0x00001d28:    f884c008    ....    STRBEQ   r12,[r4,#8]
        0x00001d2c:    2800        .(      CMPNE    r0,#0
        0x00001d2e:    b007        ..      ADDNE    sp,sp,#0x1c
        0x00001d30:    bd30        0.      POPNE    {r4,r5,pc}
        0x00001d32:    6922        "i      LDR      r2,[r4,#0x10]
        0x00001d34:    2a00        .*      CMP      r2,#0
        0x00001d36:    bf04        ..      ITT      EQ
        0x00001d38:    b007        ..      ADDEQ    sp,sp,#0x1c
        0x00001d3a:    bd30        0.      POPEQ    {r4,r5,pc}
        0x00001d3c:    6960        `i      LDR      r0,[r4,#0x14]
        0x00001d3e:    b007        ..      ADD      sp,sp,#0x1c
        0x00001d40:    e8bd4030    ..0@    POP      {r4,r5,lr}
        0x00001d44:    4710        .G      BX       r2
        0x00001d46:    f8b40005    ....    LDRH     r0,[r4,#5]
        0x00001d4a:    8961        a.      LDRH     r1,[r4,#0xa]
        0x00001d4c:    2303        .#      MOVS     r3,#3
        0x00001d4e:    4008        .@      ANDS     r0,r0,r1
        0x00001d50:    89a1        ..      LDRH     r1,[r4,#0xc]
        0x00001d52:    1d22        ".      ADDS     r2,r4,#4
        0x00001d54:    4308        .C      ORRS     r0,r0,r1
        0x00001d56:    7160        `q      STRB     r0,[r4,#5]
        0x00001d58:    0a00        ..      LSRS     r0,r0,#8
        0x00001d5a:    71a0        .q      STRB     r0,[r4,#6]
        0x00001d5c:    7a61        az      LDRB     r1,[r4,#9]
        0x00001d5e:    6825        %h      LDR      r5,[r4,#0]
        0x00001d60:    4807        .H      LDR      r0,[pc,#28] ; [0x1d80] = 0x1d0d
        0x00001d62:    f8cdc008    ....    STR      r12,[sp,#8]
        0x00001d66:    9405        ..      STR      r4,[sp,#0x14]
        0x00001d68:    e9cdc003    ....    STRD     r12,r0,[sp,#0xc]
        0x00001d6c:    e9cd3c00    ...<    STRD     r3,r12,[sp,#0]
        0x00001d70:    4628        (F      MOV      r0,r5
        0x00001d72:    f7fffd1b    ....    BL       I2CMCommand ; 0x17ac
        0x00001d76:    2002        .       MOVS     r0,#2
        0x00001d78:    7220         r      STRB     r0,[r4,#8]
        0x00001d7a:    b007        ..      ADD      sp,sp,#0x1c
        0x00001d7c:    bd30        0.      POP      {r4,r5,pc}
    $d
        0x00001d7e:    0000        ..      DCW    0
        0x00001d80:    00001d0d    ....    DCD    7437
    $t
    i.I2CMReadModifyWrite8
    I2CMReadModifyWrite8
        0x00001d84:    b570        p.      PUSH     {r4-r6,lr}
        0x00001d86:    b086        ..      SUB      sp,sp,#0x18
        0x00001d88:    e9dd450b    ...E    LDRD     r4,r5,[sp,#0x2c]
        0x00001d8c:    f8ddc028    ..(.    LDR      r12,[sp,#0x28]
        0x00001d90:    9e0d        ..      LDR      r6,[sp,#0x34]
        0x00001d92:    6001        .`      STR      r1,[r0,#0]
        0x00001d94:    7242        Br      STRB     r2,[r0,#9]
        0x00001d96:    f880c00a    ....    STRB     r12,[r0,#0xa]
        0x00001d9a:    b2e4        ..      UXTB     r4,r4
        0x00001d9c:    72c4        .r      STRB     r4,[r0,#0xb]
        0x00001d9e:    e9c05603    ...V    STRD     r5,r6,[r0,#0xc]
        0x00001da2:    7103        .q      STRB     r3,[r0,#4]
        0x00001da4:    f1bc0f00    ....    CMP      r12,#0
        0x00001da8:    d017        ..      BEQ      0x1dda ; I2CMReadModifyWrite8 + 86
        0x00001daa:    2301        .#      MOVS     r3,#1
        0x00001dac:    7203        .r      STRB     r3,[r0,#8]
        0x00001dae:    f8dfc058    ..X.    LDR      r12,[pc,#88] ; [0x1e08] = 0x1e0d
        0x00001db2:    9005        ..      STR      r0,[sp,#0x14]
        0x00001db4:    9302        ..      STR      r3,[sp,#8]
        0x00001db6:    e9cd3c03    ...<    STRD     r3,r12,[sp,#0xc]
        0x00001dba:    1d44        D.      ADDS     r4,r0,#5
        0x00001dbc:    460d        .F      MOV      r5,r1
        0x00001dbe:    4611        .F      MOV      r1,r2
        0x00001dc0:    e9cd3400    ...4    STRD     r3,r4,[sp,#0]
        0x00001dc4:    1d02        ..      ADDS     r2,r0,#4
        0x00001dc6:    4628        (F      MOV      r0,r5
        0x00001dc8:    f7fffcf0    ....    BL       I2CMCommand ; 0x17ac
        0x00001dcc:    2800        .(      CMP      r0,#0
        0x00001dce:    bf04        ..      ITT      EQ
        0x00001dd0:    b006        ..      ADDEQ    sp,sp,#0x18
        0x00001dd2:    bd70        p.      POPEQ    {r4-r6,pc}
        0x00001dd4:    2001        .       MOVS     r0,#1
        0x00001dd6:    b006        ..      ADD      sp,sp,#0x18
        0x00001dd8:    bd70        p.      POP      {r4-r6,pc}
        0x00001dda:    2302        .#      MOVS     r3,#2
        0x00001ddc:    7203        .r      STRB     r3,[r0,#8]
        0x00001dde:    7144        Dq      STRB     r4,[r0,#5]
        0x00001de0:    f8dfc024    ..$.    LDR      r12,[pc,#36] ; [0x1e08] = 0x1e0d
        0x00001de4:    2400        .$      MOVS     r4,#0
        0x00001de6:    9005        ..      STR      r0,[sp,#0x14]
        0x00001de8:    9402        ..      STR      r4,[sp,#8]
        0x00001dea:    e9cd4c03    ...L    STRD     r4,r12,[sp,#0xc]
        0x00001dee:    460d        .F      MOV      r5,r1
        0x00001df0:    4611        .F      MOV      r1,r2
        0x00001df2:    e9cd3400    ...4    STRD     r3,r4,[sp,#0]
        0x00001df6:    1d02        ..      ADDS     r2,r0,#4
        0x00001df8:    4628        (F      MOV      r0,r5
        0x00001dfa:    f7fffcd7    ....    BL       I2CMCommand ; 0x17ac
        0x00001dfe:    2800        .(      CMP      r0,#0
        0x00001e00:    d1e8        ..      BNE      0x1dd4 ; I2CMReadModifyWrite8 + 80
        0x00001e02:    b006        ..      ADD      sp,sp,#0x18
        0x00001e04:    bd70        p.      POP      {r4-r6,pc}
    $d
        0x00001e06:    0000        ..      DCW    0
        0x00001e08:    00001e0d    ....    DCD    7693
    $t
    i.I2CMReadModifyWrite8Callback
    I2CMReadModifyWrite8Callback
        0x00001e0c:    b530        0.      PUSH     {r4,r5,lr}
        0x00001e0e:    b087        ..      SUB      sp,sp,#0x1c
        0x00001e10:    4604        .F      MOV      r4,r0
        0x00001e12:    f04f0c00    O...    MOV      r12,#0
        0x00001e16:    2900        .)      CMP      r1,#0
        0x00001e18:    bf18        ..      IT       NE
        0x00001e1a:    f884c008    ....    STRBNE   r12,[r4,#8]
        0x00001e1e:    7a20         z      LDRB     r0,[r4,#8]
        0x00001e20:    2801        .(      CMP      r0,#1
        0x00001e22:    d010        ..      BEQ      0x1e46 ; I2CMReadModifyWrite8Callback + 58
        0x00001e24:    2802        .(      CMP      r0,#2
        0x00001e26:    bf0f        ..      ITEEE    EQ
        0x00001e28:    f884c008    ....    STRBEQ   r12,[r4,#8]
        0x00001e2c:    2800        .(      CMPNE    r0,#0
        0x00001e2e:    b007        ..      ADDNE    sp,sp,#0x1c
        0x00001e30:    bd30        0.      POPNE    {r4,r5,pc}
        0x00001e32:    68e2        .h      LDR      r2,[r4,#0xc]
        0x00001e34:    2a00        .*      CMP      r2,#0
        0x00001e36:    bf04        ..      ITT      EQ
        0x00001e38:    b007        ..      ADDEQ    sp,sp,#0x1c
        0x00001e3a:    bd30        0.      POPEQ    {r4,r5,pc}
        0x00001e3c:    6920         i      LDR      r0,[r4,#0x10]
        0x00001e3e:    b007        ..      ADD      sp,sp,#0x1c
        0x00001e40:    e8bd4030    ..0@    POP      {r4,r5,lr}
        0x00001e44:    4710        .G      BX       r2
        0x00001e46:    7960        `y      LDRB     r0,[r4,#5]
        0x00001e48:    7aa1        .z      LDRB     r1,[r4,#0xa]
        0x00001e4a:    2302        .#      MOVS     r3,#2
        0x00001e4c:    4008        .@      ANDS     r0,r0,r1
        0x00001e4e:    7ae1        .z      LDRB     r1,[r4,#0xb]
        0x00001e50:    1d22        ".      ADDS     r2,r4,#4
        0x00001e52:    4308        .C      ORRS     r0,r0,r1
        0x00001e54:    7160        `q      STRB     r0,[r4,#5]
        0x00001e56:    7a61        az      LDRB     r1,[r4,#9]
        0x00001e58:    6825        %h      LDR      r5,[r4,#0]
        0x00001e5a:    4807        .H      LDR      r0,[pc,#28] ; [0x1e78] = 0x1e0d
        0x00001e5c:    f8cdc008    ....    STR      r12,[sp,#8]
        0x00001e60:    9405        ..      STR      r4,[sp,#0x14]
        0x00001e62:    e9cdc003    ....    STRD     r12,r0,[sp,#0xc]
        0x00001e66:    e9cd3c00    ...<    STRD     r3,r12,[sp,#0]
        0x00001e6a:    4628        (F      MOV      r0,r5
        0x00001e6c:    f7fffc9e    ....    BL       I2CMCommand ; 0x17ac
        0x00001e70:    2002        .       MOVS     r0,#2
        0x00001e72:    7220         r      STRB     r0,[r4,#8]
        0x00001e74:    b007        ..      ADD      sp,sp,#0x1c
        0x00001e76:    bd30        0.      POP      {r4,r5,pc}
    $d
        0x00001e78:    00001e0d    ....    DCD    7693
    $t
    i.I2CMTransferResume
    I2CMTransferResume
        0x00001e7c:    79c2        .y      LDRB     r2,[r0,#7]
        0x00001e7e:    2a03        .*      CMP      r2,#3
        0x00001e80:    d00a        ..      BEQ      0x1e98 ; I2CMTransferResume + 28
        0x00001e82:    2a08        .*      CMP      r2,#8
        0x00001e84:    bf1c        ..      ITT      NE
        0x00001e86:    2000        .       MOVNE    r0,#0
        0x00001e88:    4770        pG      BXNE     lr
        0x00001e8a:    7a02        .z      LDRB     r2,[r0,#8]
        0x00001e8c:    ebc202c2    ....    RSB      r2,r2,r2,LSL #3
        0x00001e90:    eb000282    ....    ADD      r2,r0,r2,LSL #2
        0x00001e94:    6191        .a      STR      r1,[r2,#0x18]
        0x00001e96:    e005        ..      B        0x1ea4 ; I2CMTransferResume + 40
        0x00001e98:    7a02        .z      LDRB     r2,[r0,#8]
        0x00001e9a:    ebc202c2    ....    RSB      r2,r2,r2,LSL #3
        0x00001e9e:    eb000282    ....    ADD      r2,r0,r2,LSL #2
        0x00001ea2:    6111        .a      STR      r1,[r2,#0x10]
        0x00001ea4:    b510        ..      PUSH     {r4,lr}
        0x00001ea6:    7900        .y      LDRB     r0,[r0,#4]
        0x00001ea8:    f000fb78    ..x.    BL       IntTrigger ; 0x259c
        0x00001eac:    2001        .       MOVS     r0,#1
        0x00001eae:    bd10        ..      POP      {r4,pc}
    i.I2CMWrite
    I2CMWrite
        0x00001eb0:    b530        0.      PUSH     {r4,r5,lr}
        0x00001eb2:    b087        ..      SUB      sp,sp,#0x1c
        0x00001eb4:    2500        .%      MOVS     r5,#0
        0x00001eb6:    e9dd4c0a    ...L    LDRD     r4,r12,[sp,#0x28]
        0x00001eba:    f8cdc014    ....    STR      r12,[sp,#0x14]
        0x00001ebe:    9502        ..      STR      r5,[sp,#8]
        0x00001ec0:    e9cd5403    ...T    STRD     r5,r4,[sp,#0xc]
        0x00001ec4:    e9cd3500    ...5    STRD     r3,r5,[sp,#0]
        0x00001ec8:    f7fffc70    ..p.    BL       I2CMCommand ; 0x17ac
        0x00001ecc:    b007        ..      ADD      sp,sp,#0x1c
        0x00001ece:    bd30        0.      POP      {r4,r5,pc}
    i.I2CMWrite16BE
    I2CMWrite16BE
        0x00001ed0:    b570        p.      PUSH     {r4-r6,lr}
        0x00001ed2:    b086        ..      SUB      sp,sp,#0x18
        0x00001ed4:    460c        .F      MOV      r4,r1
        0x00001ed6:    e9dd1c0a    ....    LDRD     r1,r12,[sp,#0x28]
        0x00001eda:    e9dd560c    ...V    LDRD     r5,r6,[sp,#0x30]
        0x00001ede:    6004        .`      STR      r4,[r0,#0]
        0x00001ee0:    6081        .`      STR      r1,[r0,#8]
        0x00001ee2:    f8a0c006    ....    STRH     r12,[r0,#6]
        0x00001ee6:    e9c05603    ...V    STRD     r5,r6,[r0,#0xc]
        0x00001eea:    7103        .q      STRB     r3,[r0,#4]
        0x00001eec:    7849        Ix      LDRB     r1,[r1,#1]
        0x00001eee:    7141        Aq      STRB     r1,[r0,#5]
        0x00001ef0:    2301        .#      MOVS     r3,#1
        0x00001ef2:    eb03034c    ..L.    ADD      r3,r3,r12,LSL #1
        0x00001ef6:    f8dfc028    ..(.    LDR      r12,[pc,#40] ; [0x1f20] = 0x1f25
        0x00001efa:    2500        .%      MOVS     r5,#0
        0x00001efc:    9005        ..      STR      r0,[sp,#0x14]
        0x00001efe:    9502        ..      STR      r5,[sp,#8]
        0x00001f00:    4626        &F      MOV      r6,r4
        0x00001f02:    e9cd5c03    ...\    STRD     r5,r12,[sp,#0xc]
        0x00001f06:    4611        .F      MOV      r1,r2
        0x00001f08:    1d02        ..      ADDS     r2,r0,#4
        0x00001f0a:    2402        .$      MOVS     r4,#2
        0x00001f0c:    4630        0F      MOV      r0,r6
        0x00001f0e:    e9cd4500    ...E    STRD     r4,r5,[sp,#0]
        0x00001f12:    f7fffc4b    ..K.    BL       I2CMCommand ; 0x17ac
        0x00001f16:    2800        .(      CMP      r0,#0
        0x00001f18:    bf18        ..      IT       NE
        0x00001f1a:    2001        .       MOVNE    r0,#1
        0x00001f1c:    b006        ..      ADD      sp,sp,#0x18
        0x00001f1e:    bd70        p.      POP      {r4-r6,pc}
    $d
        0x00001f20:    00001f25    %...    DCD    7973
    $t
    i.I2CMWrite16BECallback
    I2CMWrite16BECallback
        0x00001f24:    2905        .)      CMP      r1,#5
        0x00001f26:    d005        ..      BEQ      0x1f34 ; I2CMWrite16BECallback + 16
        0x00001f28:    68c2        .h      LDR      r2,[r0,#0xc]
        0x00001f2a:    2a00        .*      CMP      r2,#0
        0x00001f2c:    bf08        ..      IT       EQ
        0x00001f2e:    4770        pG      BXEQ     lr
        0x00001f30:    6900        .i      LDR      r0,[r0,#0x10]
        0x00001f32:    4710        .G      BX       r2
        0x00001f34:    6881        .h      LDR      r1,[r0,#8]
        0x00001f36:    7809        .x      LDRB     r1,[r1,#0]
        0x00001f38:    7101        .q      STRB     r1,[r0,#4]
        0x00001f3a:    88c1        ..      LDRH     r1,[r0,#6]
        0x00001f3c:    2901        .)      CMP      r1,#1
        0x00001f3e:    d902        ..      BLS      0x1f46 ; I2CMWrite16BECallback + 34
        0x00001f40:    6881        .h      LDR      r1,[r0,#8]
        0x00001f42:    78c9        .x      LDRB     r1,[r1,#3]
        0x00001f44:    7141        Aq      STRB     r1,[r0,#5]
        0x00001f46:    6881        .h      LDR      r1,[r0,#8]
        0x00001f48:    1c89        ..      ADDS     r1,r1,#2
        0x00001f4a:    6081        .`      STR      r1,[r0,#8]
        0x00001f4c:    88c1        ..      LDRH     r1,[r0,#6]
        0x00001f4e:    1e49        I.      SUBS     r1,r1,#1
        0x00001f50:    80c1        ..      STRH     r1,[r0,#6]
        0x00001f52:    f8501b04    P...    LDR      r1,[r0],#4
        0x00001f56:    79ca        .y      LDRB     r2,[r1,#7]
        0x00001f58:    2a03        .*      CMP      r2,#3
        0x00001f5a:    d00b        ..      BEQ      0x1f74 ; I2CMWrite16BECallback + 80
        0x00001f5c:    2a08        .*      CMP      r2,#8
        0x00001f5e:    bf18        ..      IT       NE
        0x00001f60:    4770        pG      BXNE     lr
        0x00001f62:    7a0a        .z      LDRB     r2,[r1,#8]
        0x00001f64:    ebc202c2    ....    RSB      r2,r2,r2,LSL #3
        0x00001f68:    eb010282    ....    ADD      r2,r1,r2,LSL #2
        0x00001f6c:    6190        .a      STR      r0,[r2,#0x18]
        0x00001f6e:    7908        .y      LDRB     r0,[r1,#4]
        0x00001f70:    f000bb14    ....    B.W      IntTrigger ; 0x259c
        0x00001f74:    7a0a        .z      LDRB     r2,[r1,#8]
        0x00001f76:    ebc202c2    ....    RSB      r2,r2,r2,LSL #3
        0x00001f7a:    eb010282    ....    ADD      r2,r1,r2,LSL #2
        0x00001f7e:    6110        .a      STR      r0,[r2,#0x10]
        0x00001f80:    e7f5        ..      B        0x1f6e ; I2CMWrite16BECallback + 74
        0x00001f82:    0000        ..      MOVS     r0,r0
    i.I2CMWrite8
    I2CMWrite8
        0x00001f84:    b5f0        ..      PUSH     {r4-r7,lr}
        0x00001f86:    b087        ..      SUB      sp,sp,#0x1c
        0x00001f88:    460c        .F      MOV      r4,r1
        0x00001f8a:    e9dd1c0c    ....    LDRD     r1,r12,[sp,#0x30]
        0x00001f8e:    e9dd560e    ...V    LDRD     r5,r6,[sp,#0x38]
        0x00001f92:    1c4f        O.      ADDS     r7,r1,#1
        0x00001f94:    6087        .`      STR      r7,[r0,#8]
        0x00001f96:    f1ac0701    ....    SUB      r7,r12,#1
        0x00001f9a:    6004        .`      STR      r4,[r0,#0]
        0x00001f9c:    80c7        ..      STRH     r7,[r0,#6]
        0x00001f9e:    e9c05603    ...V    STRD     r5,r6,[r0,#0xc]
        0x00001fa2:    7103        .q      STRB     r3,[r0,#4]
        0x00001fa4:    7809        .x      LDRB     r1,[r1,#0]
        0x00001fa6:    7141        Aq      STRB     r1,[r0,#5]
        0x00001fa8:    f8dfc028    ..(.    LDR      r12,[pc,#40] ; [0x1fd4] = 0x1fd9
        0x00001fac:    2500        .%      MOVS     r5,#0
        0x00001fae:    9005        ..      STR      r0,[sp,#0x14]
        0x00001fb0:    9502        ..      STR      r5,[sp,#8]
        0x00001fb2:    4626        &F      MOV      r6,r4
        0x00001fb4:    e9cd5c03    ...\    STRD     r5,r12,[sp,#0xc]
        0x00001fb8:    4611        .F      MOV      r1,r2
        0x00001fba:    1d02        ..      ADDS     r2,r0,#4
        0x00001fbc:    2402        .$      MOVS     r4,#2
        0x00001fbe:    1cbb        ..      ADDS     r3,r7,#2
        0x00001fc0:    4630        0F      MOV      r0,r6
        0x00001fc2:    e9cd4500    ...E    STRD     r4,r5,[sp,#0]
        0x00001fc6:    f7fffbf1    ....    BL       I2CMCommand ; 0x17ac
        0x00001fca:    2800        .(      CMP      r0,#0
        0x00001fcc:    bf18        ..      IT       NE
        0x00001fce:    2001        .       MOVNE    r0,#1
        0x00001fd0:    b007        ..      ADD      sp,sp,#0x1c
        0x00001fd2:    bdf0        ..      POP      {r4-r7,pc}
    $d
        0x00001fd4:    00001fd9    ....    DCD    8153
    $t
    i.I2CMWrite8Callback
    I2CMWrite8Callback
        0x00001fd8:    2905        .)      CMP      r1,#5
        0x00001fda:    d005        ..      BEQ      0x1fe8 ; I2CMWrite8Callback + 16
        0x00001fdc:    68c2        .h      LDR      r2,[r0,#0xc]
        0x00001fde:    2a00        .*      CMP      r2,#0
        0x00001fe0:    bf08        ..      IT       EQ
        0x00001fe2:    4770        pG      BXEQ     lr
        0x00001fe4:    6900        .i      LDR      r0,[r0,#0x10]
        0x00001fe6:    4710        .G      BX       r2
        0x00001fe8:    6881        .h      LDR      r1,[r0,#8]
        0x00001fea:    7809        .x      LDRB     r1,[r1,#0]
        0x00001fec:    7101        .q      STRB     r1,[r0,#4]
        0x00001fee:    88c1        ..      LDRH     r1,[r0,#6]
        0x00001ff0:    2901        .)      CMP      r1,#1
        0x00001ff2:    d902        ..      BLS      0x1ffa ; I2CMWrite8Callback + 34
        0x00001ff4:    6881        .h      LDR      r1,[r0,#8]
        0x00001ff6:    7849        Ix      LDRB     r1,[r1,#1]
        0x00001ff8:    7141        Aq      STRB     r1,[r0,#5]
        0x00001ffa:    6881        .h      LDR      r1,[r0,#8]
        0x00001ffc:    1c89        ..      ADDS     r1,r1,#2
        0x00001ffe:    6081        .`      STR      r1,[r0,#8]
        0x00002000:    88c1        ..      LDRH     r1,[r0,#6]
        0x00002002:    1e89        ..      SUBS     r1,r1,#2
        0x00002004:    80c1        ..      STRH     r1,[r0,#6]
        0x00002006:    f8501b04    P...    LDR      r1,[r0],#4
        0x0000200a:    79ca        .y      LDRB     r2,[r1,#7]
        0x0000200c:    2a03        .*      CMP      r2,#3
        0x0000200e:    d00b        ..      BEQ      0x2028 ; I2CMWrite8Callback + 80
        0x00002010:    2a08        .*      CMP      r2,#8
        0x00002012:    bf18        ..      IT       NE
        0x00002014:    4770        pG      BXNE     lr
        0x00002016:    7a0a        .z      LDRB     r2,[r1,#8]
        0x00002018:    ebc202c2    ....    RSB      r2,r2,r2,LSL #3
        0x0000201c:    eb010282    ....    ADD      r2,r1,r2,LSL #2
        0x00002020:    6190        .a      STR      r0,[r2,#0x18]
        0x00002022:    7908        .y      LDRB     r0,[r1,#4]
        0x00002024:    f000baba    ....    B.W      IntTrigger ; 0x259c
        0x00002028:    7a0a        .z      LDRB     r2,[r1,#8]
        0x0000202a:    ebc202c2    ....    RSB      r2,r2,r2,LSL #3
        0x0000202e:    eb010282    ....    ADD      r2,r1,r2,LSL #2
        0x00002032:    6110        .a      STR      r0,[r2,#0x10]
        0x00002034:    e7f5        ..      B        0x2022 ; I2CMWrite8Callback + 74
    i.I2CMWriteBatched
    I2CMWriteBatched
        0x00002036:    b570        p.      PUSH     {r4-r6,lr}
        0x00002038:    b086        ..      SUB      sp,sp,#0x18
        0x0000203a:    2600        .&      MOVS     r6,#0
        0x0000203c:    e9dd450a    ...E    LDRD     r4,r5,[sp,#0x28]
        0x00002040:    f8ddc030    ..0.    LDR      r12,[sp,#0x30]
        0x00002044:    f8cdc014    ....    STR      r12,[sp,#0x14]
        0x00002048:    9602        ..      STR      r6,[sp,#8]
        0x0000204a:    e9cd6503    ...e    STRD     r6,r5,[sp,#0xc]
        0x0000204e:    e9cd4600    ...F    STRD     r4,r6,[sp,#0]
        0x00002052:    f7fffbab    ....    BL       I2CMCommand ; 0x17ac
        0x00002056:    b006        ..      ADD      sp,sp,#0x18
        0x00002058:    bd70        p.      POP      {r4-r6,pc}
    i.I2CMasterBurstCountGet
    I2CMasterBurstCountGet
        0x0000205a:    6b40        @k      LDR      r0,[r0,#0x34]
        0x0000205c:    4770        pG      BX       lr
    i.I2CMasterBurstLengthSet
    I2CMasterBurstLengthSet
        0x0000205e:    6301        .c      STR      r1,[r0,#0x30]
        0x00002060:    4770        pG      BX       lr
    i.I2CMasterBusBusy
    I2CMasterBusBusy
        0x00002062:    6840        @h      LDR      r0,[r0,#4]
        0x00002064:    f0100040    ..@.    ANDS     r0,r0,#0x40
        0x00002068:    bf18        ..      IT       NE
        0x0000206a:    2001        .       MOVNE    r0,#1
        0x0000206c:    4770        pG      BX       lr
    i.I2CMasterBusy
    I2CMasterBusy
        0x0000206e:    6840        @h      LDR      r0,[r0,#4]
        0x00002070:    f0100001    ....    ANDS     r0,r0,#1
        0x00002074:    bf18        ..      IT       NE
        0x00002076:    2001        .       MOVNE    r0,#1
        0x00002078:    4770        pG      BX       lr
    i.I2CMasterControl
    I2CMasterControl
        0x0000207a:    6041        A`      STR      r1,[r0,#4]
        0x0000207c:    4770        pG      BX       lr
    i.I2CMasterDataGet
    I2CMasterDataGet
        0x0000207e:    6880        .h      LDR      r0,[r0,#8]
        0x00002080:    4770        pG      BX       lr
    i.I2CMasterDataPut
    I2CMasterDataPut
        0x00002082:    6081        .`      STR      r1,[r0,#8]
        0x00002084:    4770        pG      BX       lr
    i.I2CMasterDisable
    I2CMasterDisable
        0x00002086:    6a01        .j      LDR      r1,[r0,#0x20]
        0x00002088:    f0210110    !...    BIC      r1,r1,#0x10
        0x0000208c:    6201        .b      STR      r1,[r0,#0x20]
        0x0000208e:    4770        pG      BX       lr
    i.I2CMasterEnable
    I2CMasterEnable
        0x00002090:    6a01        .j      LDR      r1,[r0,#0x20]
        0x00002092:    f0410110    A...    ORR      r1,r1,#0x10
        0x00002096:    6201        .b      STR      r1,[r0,#0x20]
        0x00002098:    4770        pG      BX       lr
    i.I2CMasterErr
    I2CMasterErr
        0x0000209a:    6840        @h      LDR      r0,[r0,#4]
        0x0000209c:    f0100f01    ....    TST      r0,#1
        0x000020a0:    d105        ..      BNE      0x20ae ; I2CMasterErr + 20
        0x000020a2:    f0100f12    ....    TST      r0,#0x12
        0x000020a6:    bf1c        ..      ITT      NE
        0x000020a8:    f000001c    ....    ANDNE    r0,r0,#0x1c
        0x000020ac:    4770        pG      BXNE     lr
        0x000020ae:    2000        .       MOVS     r0,#0
        0x000020b0:    4770        pG      BX       lr
    i.I2CMasterGlitchFilterConfigSet
    I2CMasterGlitchFilterConfigSet
        0x000020b2:    68c2        .h      LDR      r2,[r0,#0xc]
        0x000020b4:    4311        .C      ORRS     r1,r1,r2
        0x000020b6:    60c1        .`      STR      r1,[r0,#0xc]
        0x000020b8:    4770        pG      BX       lr
        0x000020ba:    0000        ..      MOVS     r0,r0
    i.I2CMasterInitExpClk
    I2CMasterInitExpClk
        0x000020bc:    6a03        .j      LDR      r3,[r0,#0x20]
        0x000020be:    f0430310    C...    ORR      r3,r3,#0x10
        0x000020c2:    6203        .b      STR      r3,[r0,#0x20]
        0x000020c4:    2a00        .*      CMP      r2,#0
        0x000020c6:    bf14        ..      ITE      NE
        0x000020c8:    4a0e        .J      LDRNE    r2,[pc,#56] ; [0x2104] = 0x61a80
        0x000020ca:    4a0f        .J      LDREQ    r2,[pc,#60] ; [0x2108] = 0x186a0
        0x000020cc:    eb020382    ....    ADD      r3,r2,r2,LSL #2
        0x000020d0:    eb010383    ....    ADD      r3,r1,r3,LSL #2
        0x000020d4:    eb020282    ....    ADD      r2,r2,r2,LSL #2
        0x000020d8:    1e5b        [.      SUBS     r3,r3,#1
        0x000020da:    0092        ..      LSLS     r2,r2,#2
        0x000020dc:    fbb3f2f2    ....    UDIV     r2,r3,r2
        0x000020e0:    1e52        R.      SUBS     r2,r2,#1
        0x000020e2:    60c2        .`      STR      r2,[r0,#0xc]
        0x000020e4:    f8d02fc0    .../    LDR      r2,[r0,#0xfc0]
        0x000020e8:    f0120f01    ....    TST      r2,#1
        0x000020ec:    bf08        ..      IT       EQ
        0x000020ee:    4770        pG      BXEQ     lr
        0x000020f0:    4a06        .J      LDR      r2,[pc,#24] ; [0x210c] = 0x137477f
        0x000020f2:    4411        .D      ADD      r1,r1,r2
        0x000020f4:    1c52        R.      ADDS     r2,r2,#1
        0x000020f6:    fbb1f1f2    ....    UDIV     r1,r1,r2
        0x000020fa:    1e49        I.      SUBS     r1,r1,#1
        0x000020fc:    f0410180    A...    ORR      r1,r1,#0x80
        0x00002100:    60c1        .`      STR      r1,[r0,#0xc]
        0x00002102:    4770        pG      BX       lr
    $d
        0x00002104:    00061a80    ....    DCD    400000
        0x00002108:    000186a0    ....    DCD    100000
        0x0000210c:    0137477f    .G7.    DCD    20399999
    $t
    i.I2CMasterIntClear
    I2CMasterIntClear
        0x00002110:    2101        .!      MOVS     r1,#1
        0x00002112:    61c1        .a      STR      r1,[r0,#0x1c]
        0x00002114:    6181        .a      STR      r1,[r0,#0x18]
        0x00002116:    4770        pG      BX       lr
    i.I2CMasterIntClearEx
    I2CMasterIntClearEx
        0x00002118:    61c1        .a      STR      r1,[r0,#0x1c]
        0x0000211a:    4770        pG      BX       lr
    i.I2CMasterIntDisable
    I2CMasterIntDisable
        0x0000211c:    2100        .!      MOVS     r1,#0
        0x0000211e:    6101        .a      STR      r1,[r0,#0x10]
        0x00002120:    4770        pG      BX       lr
    i.I2CMasterIntDisableEx
    I2CMasterIntDisableEx
        0x00002122:    6902        .i      LDR      r2,[r0,#0x10]
        0x00002124:    ea220101    "...    BIC      r1,r2,r1
        0x00002128:    6101        .a      STR      r1,[r0,#0x10]
        0x0000212a:    4770        pG      BX       lr
    i.I2CMasterIntEnable
    I2CMasterIntEnable
        0x0000212c:    2101        .!      MOVS     r1,#1
        0x0000212e:    6101        .a      STR      r1,[r0,#0x10]
        0x00002130:    4770        pG      BX       lr
    i.I2CMasterIntEnableEx
    I2CMasterIntEnableEx
        0x00002132:    6902        .i      LDR      r2,[r0,#0x10]
        0x00002134:    4311        .C      ORRS     r1,r1,r2
        0x00002136:    6101        .a      STR      r1,[r0,#0x10]
        0x00002138:    4770        pG      BX       lr
    i.I2CMasterIntStatus
    I2CMasterIntStatus
        0x0000213a:    b121        !.      CBZ      r1,0x2146 ; I2CMasterIntStatus + 12
        0x0000213c:    6980        .i      LDR      r0,[r0,#0x18]
        0x0000213e:    2800        .(      CMP      r0,#0
        0x00002140:    bf08        ..      IT       EQ
        0x00002142:    4770        pG      BXEQ     lr
        0x00002144:    e003        ..      B        0x214e ; I2CMasterIntStatus + 20
        0x00002146:    6940        @i      LDR      r0,[r0,#0x14]
        0x00002148:    2800        .(      CMP      r0,#0
        0x0000214a:    bf08        ..      IT       EQ
        0x0000214c:    4770        pG      BXEQ     lr
        0x0000214e:    2001        .       MOVS     r0,#1
        0x00002150:    4770        pG      BX       lr
    i.I2CMasterIntStatusEx
    I2CMasterIntStatusEx
        0x00002152:    2900        .)      CMP      r1,#0
        0x00002154:    bf14        ..      ITE      NE
        0x00002156:    6980        .i      LDRNE    r0,[r0,#0x18]
        0x00002158:    6940        @i      LDREQ    r0,[r0,#0x14]
        0x0000215a:    4770        pG      BX       lr
    i.I2CMasterLineStateGet
    I2CMasterLineStateGet
        0x0000215c:    6ac0        .j      LDR      r0,[r0,#0x2c]
        0x0000215e:    4770        pG      BX       lr
    i.I2CMasterSlaveAddrSet
    I2CMasterSlaveAddrSet
        0x00002160:    ea420141    B.A.    ORR      r1,r2,r1,LSL #1
        0x00002164:    6001        .`      STR      r1,[r0,#0]
        0x00002166:    4770        pG      BX       lr
    i.I2CMasterTimeoutSet
    I2CMasterTimeoutSet
        0x00002168:    6241        Ab      STR      r1,[r0,#0x24]
        0x0000216a:    4770        pG      BX       lr
    i.I2CRxFIFOConfigSet
    I2CRxFIFOConfigSet
        0x0000216c:    f6007204    ...r    ADD      r2,r0,#0xf04
        0x00002170:    f8d00f04    ....    LDR      r0,[r0,#0xf04]
        0x00002174:    b280        ..      UXTH     r0,r0
        0x00002176:    6010        .`      STR      r0,[r2,#0]
        0x00002178:    6810        .h      LDR      r0,[r2,#0]
        0x0000217a:    4308        .C      ORRS     r0,r0,r1
        0x0000217c:    6010        .`      STR      r0,[r2,#0]
        0x0000217e:    4770        pG      BX       lr
    i.I2CRxFIFOFlush
    I2CRxFIFOFlush
        0x00002180:    f6007104    ...q    ADD      r1,r0,#0xf04
        0x00002184:    f8d00f04    ....    LDR      r0,[r0,#0xf04]
        0x00002188:    f0404080    @..@    ORR      r0,r0,#0x40000000
        0x0000218c:    6008        .`      STR      r0,[r1,#0]
        0x0000218e:    4770        pG      BX       lr
    i.I2CSlaveACKOverride
    I2CSlaveACKOverride
        0x00002190:    f5006202    ...b    ADD      r2,r0,#0x820
        0x00002194:    f8d00820    .. .    LDR      r0,[r0,#0x820]
        0x00002198:    2900        .)      CMP      r1,#0
        0x0000219a:    bf14        ..      ITE      NE
        0x0000219c:    f0400001    @...    ORRNE    r0,r0,#1
        0x000021a0:    f0200001     ...    BICEQ    r0,r0,#1
        0x000021a4:    6010        .`      STR      r0,[r2,#0]
        0x000021a6:    4770        pG      BX       lr
    i.I2CSlaveACKValueSet
    I2CSlaveACKValueSet
        0x000021a8:    f5006202    ...b    ADD      r2,r0,#0x820
        0x000021ac:    f8d00820    .. .    LDR      r0,[r0,#0x820]
        0x000021b0:    2900        .)      CMP      r1,#0
        0x000021b2:    bf14        ..      ITE      NE
        0x000021b4:    f0200002     ...    BICNE    r0,r0,#2
        0x000021b8:    f0400002    @...    ORREQ    r0,r0,#2
        0x000021bc:    6010        .`      STR      r0,[r2,#0]
        0x000021be:    4770        pG      BX       lr
    i.I2CSlaveAddressSet
    I2CSlaveAddressSet
        0x000021c0:    2900        .)      CMP      r1,#0
        0x000021c2:    bf04        ..      ITT      EQ
        0x000021c4:    f8c02800    ...(    STREQ    r2,[r0,#0x800]
        0x000021c8:    4770        pG      BXEQ     lr
        0x000021ca:    2901        .)      CMP      r1,#1
        0x000021cc:    bf04        ..      ITT      EQ
        0x000021ce:    f0420180    B...    ORREQ    r1,r2,#0x80
        0x000021d2:    f8c0181c    ....    STREQ    r1,[r0,#0x81c]
        0x000021d6:    4770        pG      BX       lr
    i.I2CSlaveDataGet
    I2CSlaveDataGet
        0x000021d8:    f8d00808    ....    LDR      r0,[r0,#0x808]
        0x000021dc:    4770        pG      BX       lr
    i.I2CSlaveDataPut
    I2CSlaveDataPut
        0x000021de:    f8c01808    ....    STR      r1,[r0,#0x808]
        0x000021e2:    4770        pG      BX       lr
    i.I2CSlaveDisable
    I2CSlaveDisable
        0x000021e4:    2100        .!      MOVS     r1,#0
        0x000021e6:    f8c01804    ....    STR      r1,[r0,#0x804]
        0x000021ea:    6a01        .j      LDR      r1,[r0,#0x20]
        0x000021ec:    f0210120    !. .    BIC      r1,r1,#0x20
        0x000021f0:    6201        .b      STR      r1,[r0,#0x20]
        0x000021f2:    4770        pG      BX       lr
    i.I2CSlaveEnable
    I2CSlaveEnable
        0x000021f4:    6a01        .j      LDR      r1,[r0,#0x20]
        0x000021f6:    f0410120    A. .    ORR      r1,r1,#0x20
        0x000021fa:    6201        .b      STR      r1,[r0,#0x20]
        0x000021fc:    2101        .!      MOVS     r1,#1
        0x000021fe:    f8c01804    ....    STR      r1,[r0,#0x804]
        0x00002202:    4770        pG      BX       lr
    i.I2CSlaveFIFODisable
    I2CSlaveFIFODisable
        0x00002204:    2101        .!      MOVS     r1,#1
        0x00002206:    f8c01804    ....    STR      r1,[r0,#0x804]
        0x0000220a:    4770        pG      BX       lr
    i.I2CSlaveFIFOEnable
    I2CSlaveFIFOEnable
        0x0000220c:    f0410101    A...    ORR      r1,r1,#1
        0x00002210:    f8c01804    ....    STR      r1,[r0,#0x804]
        0x00002214:    4770        pG      BX       lr
    i.I2CSlaveInit
    I2CSlaveInit
        0x00002216:    6a02        .j      LDR      r2,[r0,#0x20]
        0x00002218:    f0420220    B. .    ORR      r2,r2,#0x20
        0x0000221c:    6202        .b      STR      r2,[r0,#0x20]
        0x0000221e:    2201        ."      MOVS     r2,#1
        0x00002220:    f8c02804    ...(    STR      r2,[r0,#0x804]
        0x00002224:    f8c01800    ....    STR      r1,[r0,#0x800]
        0x00002228:    4770        pG      BX       lr
    i.I2CSlaveIntClear
    I2CSlaveIntClear
        0x0000222a:    2101        .!      MOVS     r1,#1
        0x0000222c:    f8c01818    ....    STR      r1,[r0,#0x818]
        0x00002230:    4770        pG      BX       lr
    i.I2CSlaveIntClearEx
    I2CSlaveIntClearEx
        0x00002232:    f8c01818    ....    STR      r1,[r0,#0x818]
        0x00002236:    4770        pG      BX       lr
    i.I2CSlaveIntDisable
    I2CSlaveIntDisable
        0x00002238:    f600010c    ....    ADD      r1,r0,#0x80c
        0x0000223c:    f8d0080c    ....    LDR      r0,[r0,#0x80c]
        0x00002240:    f0200001     ...    BIC      r0,r0,#1
        0x00002244:    6008        .`      STR      r0,[r1,#0]
        0x00002246:    4770        pG      BX       lr
    i.I2CSlaveIntDisableEx
    I2CSlaveIntDisableEx
        0x00002248:    f600020c    ....    ADD      r2,r0,#0x80c
        0x0000224c:    f8d0080c    ....    LDR      r0,[r0,#0x80c]
        0x00002250:    4388        .C      BICS     r0,r0,r1
        0x00002252:    6010        .`      STR      r0,[r2,#0]
        0x00002254:    4770        pG      BX       lr
    i.I2CSlaveIntEnable
    I2CSlaveIntEnable
        0x00002256:    f600010c    ....    ADD      r1,r0,#0x80c
        0x0000225a:    f8d0080c    ....    LDR      r0,[r0,#0x80c]
        0x0000225e:    f0400001    @...    ORR      r0,r0,#1
        0x00002262:    6008        .`      STR      r0,[r1,#0]
        0x00002264:    4770        pG      BX       lr
    i.I2CSlaveIntEnableEx
    I2CSlaveIntEnableEx
        0x00002266:    f600020c    ....    ADD      r2,r0,#0x80c
        0x0000226a:    f8d0080c    ....    LDR      r0,[r0,#0x80c]
        0x0000226e:    4308        .C      ORRS     r0,r0,r1
        0x00002270:    6010        .`      STR      r0,[r2,#0]
        0x00002272:    4770        pG      BX       lr
    i.I2CSlaveIntStatus
    I2CSlaveIntStatus
        0x00002274:    b129        ).      CBZ      r1,0x2282 ; I2CSlaveIntStatus + 14
        0x00002276:    f8d00814    ....    LDR      r0,[r0,#0x814]
        0x0000227a:    2800        .(      CMP      r0,#0
        0x0000227c:    bf08        ..      IT       EQ
        0x0000227e:    4770        pG      BXEQ     lr
        0x00002280:    e004        ..      B        0x228c ; I2CSlaveIntStatus + 24
        0x00002282:    f8d00810    ....    LDR      r0,[r0,#0x810]
        0x00002286:    2800        .(      CMP      r0,#0
        0x00002288:    bf08        ..      IT       EQ
        0x0000228a:    4770        pG      BXEQ     lr
        0x0000228c:    2001        .       MOVS     r0,#1
        0x0000228e:    4770        pG      BX       lr
    i.I2CSlaveIntStatusEx
    I2CSlaveIntStatusEx
        0x00002290:    2900        .)      CMP      r1,#0
        0x00002292:    bf14        ..      ITE      NE
        0x00002294:    f8d00814    ....    LDRNE    r0,[r0,#0x814]
        0x00002298:    f8d00810    ....    LDREQ    r0,[r0,#0x810]
        0x0000229c:    4770        pG      BX       lr
    i.I2CSlaveStatus
    I2CSlaveStatus
        0x0000229e:    f8d00804    ....    LDR      r0,[r0,#0x804]
        0x000022a2:    4770        pG      BX       lr
    i.I2CTxFIFOConfigSet
    I2CTxFIFOConfigSet
        0x000022a4:    f6007204    ...r    ADD      r2,r0,#0xf04
        0x000022a8:    f8d00f04    ....    LDR      r0,[r0,#0xf04]
        0x000022ac:    f36f000f    o...    BFC      r0,#0,#16
        0x000022b0:    6010        .`      STR      r0,[r2,#0]
        0x000022b2:    6810        .h      LDR      r0,[r2,#0]
        0x000022b4:    4308        .C      ORRS     r0,r0,r1
        0x000022b6:    6010        .`      STR      r0,[r2,#0]
        0x000022b8:    4770        pG      BX       lr
    i.I2CTxFIFOFlush
    I2CTxFIFOFlush
        0x000022ba:    f6007104    ...q    ADD      r1,r0,#0xf04
        0x000022be:    f8d00f04    ....    LDR      r0,[r0,#0xf04]
        0x000022c2:    f4404080    @..@    ORR      r0,r0,#0x4000
        0x000022c6:    6008        .`      STR      r0,[r1,#0]
        0x000022c8:    4770        pG      BX       lr
        0x000022ca:    0000        ..      MOVS     r0,r0
    i.IntDisable
    IntDisable
        0x000022cc:    4916        .I      LDR      r1,[pc,#88] ; [0x2328] = 0xe000ed24
        0x000022ce:    2804        .(      CMP      r0,#4
        0x000022d0:    bf04        ..      ITT      EQ
        0x000022d2:    6808        .h      LDREQ    r0,[r1,#0]
        0x000022d4:    f4203080     ..0    BICEQ    r0,r0,#0x10000
        0x000022d8:    d018        ..      BEQ      0x230c ; IntDisable + 64
        0x000022da:    2805        .(      CMP      r0,#5
        0x000022dc:    bf04        ..      ITT      EQ
        0x000022de:    6808        .h      LDREQ    r0,[r1,#0]
        0x000022e0:    f4203000     ..0    BICEQ    r0,r0,#0x20000
        0x000022e4:    d012        ..      BEQ      0x230c ; IntDisable + 64
        0x000022e6:    2806        .(      CMP      r0,#6
        0x000022e8:    d012        ..      BEQ      0x2310 ; IntDisable + 68
        0x000022ea:    280f        .(      CMP      r0,#0xf
        0x000022ec:    d015        ..      BEQ      0x231a ; IntDisable + 78
        0x000022ee:    2810        .(      CMP      r0,#0x10
        0x000022f0:    bf38        8.      IT       CC
        0x000022f2:    4770        pG      BXCC     lr
        0x000022f4:    3810        .8      SUBS     r0,r0,#0x10
        0x000022f6:    f000011f    ....    AND      r1,r0,#0x1f
        0x000022fa:    2201        ."      MOVS     r2,#1
        0x000022fc:    fa02f101    ....    LSL      r1,r2,r1
        0x00002300:    0942        B.      LSRS     r2,r0,#5
        0x00002302:    480a        .H      LDR      r0,[pc,#40] ; [0x232c] = 0x5a70
        0x00002304:    f8500022    P.".    LDR      r0,[r0,r2,LSL #2]
        0x00002308:    6001        .`      STR      r1,[r0,#0]
        0x0000230a:    4770        pG      BX       lr
        0x0000230c:    6008        .`      STR      r0,[r1,#0]
        0x0000230e:    4770        pG      BX       lr
        0x00002310:    6808        .h      LDR      r0,[r1,#0]
        0x00002312:    f4202080     ..     BIC      r0,r0,#0x40000
        0x00002316:    6008        .`      STR      r0,[r1,#0]
        0x00002318:    4770        pG      BX       lr
        0x0000231a:    f04f20e0    O..     MOV      r0,#0xe000e000
        0x0000231e:    6901        .i      LDR      r1,[r0,#0x10]
        0x00002320:    f0210102    !...    BIC      r1,r1,#2
        0x00002324:    6101        .a      STR      r1,[r0,#0x10]
        0x00002326:    4770        pG      BX       lr
    $d
        0x00002328:    e000ed24    $...    DCD    3758157092
        0x0000232c:    00005a70    pZ..    DCD    23152
    $t
    i.IntEnable
    IntEnable
        0x00002330:    4916        .I      LDR      r1,[pc,#88] ; [0x238c] = 0xe000ed24
        0x00002332:    2804        .(      CMP      r0,#4
        0x00002334:    bf04        ..      ITT      EQ
        0x00002336:    6808        .h      LDREQ    r0,[r1,#0]
        0x00002338:    f4403080    @..0    ORREQ    r0,r0,#0x10000
        0x0000233c:    d018        ..      BEQ      0x2370 ; IntEnable + 64
        0x0000233e:    2805        .(      CMP      r0,#5
        0x00002340:    bf04        ..      ITT      EQ
        0x00002342:    6808        .h      LDREQ    r0,[r1,#0]
        0x00002344:    f4403000    @..0    ORREQ    r0,r0,#0x20000
        0x00002348:    d012        ..      BEQ      0x2370 ; IntEnable + 64
        0x0000234a:    2806        .(      CMP      r0,#6
        0x0000234c:    d012        ..      BEQ      0x2374 ; IntEnable + 68
        0x0000234e:    280f        .(      CMP      r0,#0xf
        0x00002350:    d015        ..      BEQ      0x237e ; IntEnable + 78
        0x00002352:    2810        .(      CMP      r0,#0x10
        0x00002354:    bf38        8.      IT       CC
        0x00002356:    4770        pG      BXCC     lr
        0x00002358:    3810        .8      SUBS     r0,r0,#0x10
        0x0000235a:    f000011f    ....    AND      r1,r0,#0x1f
        0x0000235e:    2201        ."      MOVS     r2,#1
        0x00002360:    fa02f101    ....    LSL      r1,r2,r1
        0x00002364:    0942        B.      LSRS     r2,r0,#5
        0x00002366:    480a        .H      LDR      r0,[pc,#40] ; [0x2390] = 0x5a5c
        0x00002368:    f8500022    P.".    LDR      r0,[r0,r2,LSL #2]
        0x0000236c:    6001        .`      STR      r1,[r0,#0]
        0x0000236e:    4770        pG      BX       lr
        0x00002370:    6008        .`      STR      r0,[r1,#0]
        0x00002372:    4770        pG      BX       lr
        0x00002374:    6808        .h      LDR      r0,[r1,#0]
        0x00002376:    f4402080    @..     ORR      r0,r0,#0x40000
        0x0000237a:    6008        .`      STR      r0,[r1,#0]
        0x0000237c:    4770        pG      BX       lr
        0x0000237e:    f04f20e0    O..     MOV      r0,#0xe000e000
        0x00002382:    6901        .i      LDR      r1,[r0,#0x10]
        0x00002384:    f0410102    A...    ORR      r1,r1,#2
        0x00002388:    6101        .a      STR      r1,[r0,#0x10]
        0x0000238a:    4770        pG      BX       lr
    $d
        0x0000238c:    e000ed24    $...    DCD    3758157092
        0x00002390:    00005a5c    \Z..    DCD    23132
    $t
    i.IntGPIOb
    IntGPIOb
        0x00002394:    b510        ..      PUSH     {r4,lr}
        0x00002396:    2101        .!      MOVS     r1,#1
        0x00002398:    4808        .H      LDR      r0,[pc,#32] ; [0x23bc] = 0x40005000
        0x0000239a:    f7fefe37    ..7.    BL       GPIOIntStatus ; 0x100c
        0x0000239e:    4604        .F      MOV      r4,r0
        0x000023a0:    4621        !F      MOV      r1,r4
        0x000023a2:    4806        .H      LDR      r0,[pc,#24] ; [0x23bc] = 0x40005000
        0x000023a4:    f7fefdf5    ....    BL       GPIOIntClear ; 0xf92
        0x000023a8:    f0040004    ....    AND      r0,r4,#4
        0x000023ac:    b120         .      CBZ      r0,0x23b8 ; IntGPIOb + 36
        0x000023ae:    4a04        .J      LDR      r2,[pc,#16] ; [0x23c0] = 0x2000079c
        0x000023b0:    4904        .I      LDR      r1,[pc,#16] ; [0x23c4] = 0x25f1
        0x000023b2:    4610        .F      MOV      r0,r2
        0x000023b4:    f000fb8a    ....    BL       MPU9150DataRead ; 0x2acc
        0x000023b8:    bd10        ..      POP      {r4,pc}
    $d
        0x000023ba:    0000        ..      DCW    0
        0x000023bc:    40005000    .P.@    DCD    1073762304
        0x000023c0:    2000079c    ...     DCD    536872860
        0x000023c4:    000025f1    .%..    DCD    9713
    $t
    i.IntIsEnabled
    IntIsEnabled
        0x000023c8:    2100        .!      MOVS     r1,#0
        0x000023ca:    4a15        .J      LDR      r2,[pc,#84] ; [0x2420] = 0xe000ed24
        0x000023cc:    2804        .(      CMP      r0,#4
        0x000023ce:    bf04        ..      ITT      EQ
        0x000023d0:    6810        .h      LDREQ    r0,[r2,#0]
        0x000023d2:    f4003180    ...1    ANDEQ    r1,r0,#0x10000
        0x000023d6:    d01b        ..      BEQ      0x2410 ; IntIsEnabled + 72
        0x000023d8:    2805        .(      CMP      r0,#5
        0x000023da:    bf04        ..      ITT      EQ
        0x000023dc:    6810        .h      LDREQ    r0,[r2,#0]
        0x000023de:    f4003100    ...1    ANDEQ    r1,r0,#0x20000
        0x000023e2:    d015        ..      BEQ      0x2410 ; IntIsEnabled + 72
        0x000023e4:    2806        .(      CMP      r0,#6
        0x000023e6:    bf04        ..      ITT      EQ
        0x000023e8:    6810        .h      LDREQ    r0,[r2,#0]
        0x000023ea:    f4002180    ...!    ANDEQ    r1,r0,#0x40000
        0x000023ee:    d00f        ..      BEQ      0x2410 ; IntIsEnabled + 72
        0x000023f0:    280f        .(      CMP      r0,#0xf
        0x000023f2:    d00f        ..      BEQ      0x2414 ; IntIsEnabled + 76
        0x000023f4:    2810        .(      CMP      r0,#0x10
        0x000023f6:    d30b        ..      BCC      0x2410 ; IntIsEnabled + 72
        0x000023f8:    3810        .8      SUBS     r0,r0,#0x10
        0x000023fa:    4a0a        .J      LDR      r2,[pc,#40] ; [0x2424] = 0x5a5c
        0x000023fc:    0941        A.      LSRS     r1,r0,#5
        0x000023fe:    f8521021    R.!.    LDR      r1,[r2,r1,LSL #2]
        0x00002402:    6809        .h      LDR      r1,[r1,#0]
        0x00002404:    f000001f    ....    AND      r0,r0,#0x1f
        0x00002408:    2201        ."      MOVS     r2,#1
        0x0000240a:    fa02f000    ....    LSL      r0,r2,r0
        0x0000240e:    4001        .@      ANDS     r1,r1,r0
        0x00002410:    4608        .F      MOV      r0,r1
        0x00002412:    4770        pG      BX       lr
        0x00002414:    f04f20e0    O..     MOV      r0,#0xe000e000
        0x00002418:    6900        .i      LDR      r0,[r0,#0x10]
        0x0000241a:    f0000102    ....    AND      r1,r0,#2
        0x0000241e:    e7f7        ..      B        0x2410 ; IntIsEnabled + 72
    $d
        0x00002420:    e000ed24    $...    DCD    3758157092
        0x00002424:    00005a5c    \Z..    DCD    23132
    $t
    i.IntMasterDisable
    IntMasterDisable
        0x00002428:    b510        ..      PUSH     {r4,lr}
        0x0000242a:    f7fdff3b    ..;.    BL       CPUcpsid ; 0x2a4
        0x0000242e:    2800        .(      CMP      r0,#0
        0x00002430:    bf18        ..      IT       NE
        0x00002432:    2001        .       MOVNE    r0,#1
        0x00002434:    bd10        ..      POP      {r4,pc}
    i.IntMasterEnable
    IntMasterEnable
        0x00002436:    b510        ..      PUSH     {r4,lr}
        0x00002438:    f7fdff3b    ..;.    BL       CPUcpsie ; 0x2b2
        0x0000243c:    2800        .(      CMP      r0,#0
        0x0000243e:    bf18        ..      IT       NE
        0x00002440:    2001        .       MOVNE    r0,#1
        0x00002442:    bd10        ..      POP      {r4,pc}
    i.IntPendClear
    IntPendClear
        0x00002444:    490e        .I      LDR      r1,[pc,#56] ; [0x2480] = 0xe000ed04
        0x00002446:    280e        .(      CMP      r0,#0xe
        0x00002448:    bf04        ..      ITT      EQ
        0x0000244a:    6808        .h      LDREQ    r0,[r1,#0]
        0x0000244c:    f0406000    @..`    ORREQ    r0,r0,#0x8000000
        0x00002450:    d014        ..      BEQ      0x247c ; IntPendClear + 56
        0x00002452:    280f        .(      CMP      r0,#0xf
        0x00002454:    bf04        ..      ITT      EQ
        0x00002456:    6808        .h      LDREQ    r0,[r1,#0]
        0x00002458:    f0407000    @..p    ORREQ    r0,r0,#0x2000000
        0x0000245c:    d00e        ..      BEQ      0x247c ; IntPendClear + 56
        0x0000245e:    2810        .(      CMP      r0,#0x10
        0x00002460:    bf38        8.      IT       CC
        0x00002462:    4770        pG      BXCC     lr
        0x00002464:    3810        .8      SUBS     r0,r0,#0x10
        0x00002466:    f000011f    ....    AND      r1,r0,#0x1f
        0x0000246a:    2201        ."      MOVS     r2,#1
        0x0000246c:    fa02f101    ....    LSL      r1,r2,r1
        0x00002470:    4a04        .J      LDR      r2,[pc,#16] ; [0x2484] = 0x5a98
        0x00002472:    0940        @.      LSRS     r0,r0,#5
        0x00002474:    f8520020    R. .    LDR      r0,[r2,r0,LSL #2]
        0x00002478:    6001        .`      STR      r1,[r0,#0]
        0x0000247a:    4770        pG      BX       lr
        0x0000247c:    6008        .`      STR      r0,[r1,#0]
        0x0000247e:    4770        pG      BX       lr
    $d
        0x00002480:    e000ed04    ....    DCD    3758157060
        0x00002484:    00005a98    .Z..    DCD    23192
    $t
    i.IntPendSet
    IntPendSet
        0x00002488:    4912        .I      LDR      r1,[pc,#72] ; [0x24d4] = 0xe000ed04
        0x0000248a:    2802        .(      CMP      r0,#2
        0x0000248c:    bf04        ..      ITT      EQ
        0x0000248e:    6808        .h      LDREQ    r0,[r1,#0]
        0x00002490:    f0404000    @..@    ORREQ    r0,r0,#0x80000000
        0x00002494:    d016        ..      BEQ      0x24c4 ; IntPendSet + 60
        0x00002496:    280e        .(      CMP      r0,#0xe
        0x00002498:    bf04        ..      ITT      EQ
        0x0000249a:    6808        .h      LDREQ    r0,[r1,#0]
        0x0000249c:    f0405080    @..P    ORREQ    r0,r0,#0x10000000
        0x000024a0:    d010        ..      BEQ      0x24c4 ; IntPendSet + 60
        0x000024a2:    280f        .(      CMP      r0,#0xf
        0x000024a4:    d010        ..      BEQ      0x24c8 ; IntPendSet + 64
        0x000024a6:    2810        .(      CMP      r0,#0x10
        0x000024a8:    bf38        8.      IT       CC
        0x000024aa:    4770        pG      BXCC     lr
        0x000024ac:    3810        .8      SUBS     r0,r0,#0x10
        0x000024ae:    f000011f    ....    AND      r1,r0,#0x1f
        0x000024b2:    2201        ."      MOVS     r2,#1
        0x000024b4:    fa02f101    ....    LSL      r1,r2,r1
        0x000024b8:    4a07        .J      LDR      r2,[pc,#28] ; [0x24d8] = 0x5a84
        0x000024ba:    0940        @.      LSRS     r0,r0,#5
        0x000024bc:    f8520020    R. .    LDR      r0,[r2,r0,LSL #2]
        0x000024c0:    6001        .`      STR      r1,[r0,#0]
        0x000024c2:    4770        pG      BX       lr
        0x000024c4:    6008        .`      STR      r0,[r1,#0]
        0x000024c6:    4770        pG      BX       lr
        0x000024c8:    6808        .h      LDR      r0,[r1,#0]
        0x000024ca:    f0406080    @..`    ORR      r0,r0,#0x4000000
        0x000024ce:    6008        .`      STR      r0,[r1,#0]
        0x000024d0:    4770        pG      BX       lr
    $d
        0x000024d2:    0000        ..      DCW    0
        0x000024d4:    e000ed04    ....    DCD    3758157060
        0x000024d8:    00005a84    .Z..    DCD    23172
    $t
    i.IntPriorityGet
    IntPriorityGet
        0x000024dc:    4a05        .J      LDR      r2,[pc,#20] ; [0x24f4] = 0x59c0
        0x000024de:    f0200103     ...    BIC      r1,r0,#3
        0x000024e2:    5851        QX      LDR      r1,[r2,r1]
        0x000024e4:    6809        .h      LDR      r1,[r1,#0]
        0x000024e6:    0780        ..      LSLS     r0,r0,#30
        0x000024e8:    0ec0        ..      LSRS     r0,r0,#27
        0x000024ea:    fa21f000    !...    LSR      r0,r1,r0
        0x000024ee:    b2c0        ..      UXTB     r0,r0
        0x000024f0:    4770        pG      BX       lr
    $d
        0x000024f2:    0000        ..      DCW    0
        0x000024f4:    000059c0    .Y..    DCD    22976
    $t
    i.IntPriorityGroupingGet
    IntPriorityGroupingGet
        0x000024f8:    4806        .H      LDR      r0,[pc,#24] ; [0x2514] = 0xe000ed0c
        0x000024fa:    6800        .h      LDR      r0,[r0,#0]
        0x000024fc:    4a06        .J      LDR      r2,[pc,#24] ; [0x2518] = 0x59a0
        0x000024fe:    f40061e0    ...a    AND      r1,r0,#0x700
        0x00002502:    2000        .       MOVS     r0,#0
        0x00002504:    f8523020    R. 0    LDR      r3,[r2,r0,LSL #2]
        0x00002508:    428b        .B      CMP      r3,r1
        0x0000250a:    bf1c        ..      ITT      NE
        0x0000250c:    1c40        @.      ADDNE    r0,r0,#1
        0x0000250e:    2808        .(      CMPNE    r0,#8
        0x00002510:    d3f8        ..      BCC      0x2504 ; IntPriorityGroupingGet + 12
        0x00002512:    4770        pG      BX       lr
    $d
        0x00002514:    e000ed0c    ....    DCD    3758157068
        0x00002518:    000059a0    .Y..    DCD    22944
    $t
    i.IntPriorityGroupingSet
    IntPriorityGroupingSet
        0x0000251c:    4904        .I      LDR      r1,[pc,#16] ; [0x2530] = 0x59a0
        0x0000251e:    f8510020    Q. .    LDR      r0,[r1,r0,LSL #2]
        0x00002522:    4904        .I      LDR      r1,[pc,#16] ; [0x2534] = 0xe000ed0c
        0x00002524:    f04070fd    @..p    ORR      r0,r0,#0x1fa0000
        0x00002528:    f0406080    @..`    ORR      r0,r0,#0x4000000
        0x0000252c:    6008        .`      STR      r0,[r1,#0]
        0x0000252e:    4770        pG      BX       lr
    $d
        0x00002530:    000059a0    .Y..    DCD    22944
        0x00002534:    e000ed0c    ....    DCD    3758157068
    $t
    i.IntPriorityMaskGet
    IntPriorityMaskGet
        0x00002538:    f7fdbec4    ....    B        CPUbasepriGet ; 0x2c4
    i.IntPriorityMaskSet
    IntPriorityMaskSet
        0x0000253c:    f7fdbebf    ....    B        CPUbasepriSet ; 0x2be
    i.IntPrioritySet
    IntPrioritySet
        0x00002540:    4a08        .J      LDR      r2,[pc,#32] ; [0x2564] = 0x59c0
        0x00002542:    f0200303     ...    BIC      r3,r0,#3
        0x00002546:    58d2        .X      LDR      r2,[r2,r3]
        0x00002548:    6813        .h      LDR      r3,[r2,#0]
        0x0000254a:    0780        ..      LSLS     r0,r0,#30
        0x0000254c:    0ec0        ..      LSRS     r0,r0,#27
        0x0000254e:    f04f0cff    O...    MOV      r12,#0xff
        0x00002552:    fa0cfc00    ....    LSL      r12,r12,r0
        0x00002556:    ea23030c    #...    BIC      r3,r3,r12
        0x0000255a:    fa01f000    ....    LSL      r0,r1,r0
        0x0000255e:    4318        .C      ORRS     r0,r0,r3
        0x00002560:    6010        .`      STR      r0,[r2,#0]
        0x00002562:    4770        pG      BX       lr
    $d
        0x00002564:    000059c0    .Y..    DCD    22976
    $t
    i.IntRegister
    IntRegister
        0x00002568:    b430        0.      PUSH     {r4,r5}
        0x0000256a:    4d0a        .M      LDR      r5,[pc,#40] ; [0x2594] = 0xe000ed08
        0x0000256c:    682a        *h      LDR      r2,[r5,#0]
        0x0000256e:    4b0a        .K      LDR      r3,[pc,#40] ; [0x2598] = 0x20000400
        0x00002570:    429a        .B      CMP      r2,r3
        0x00002572:    bf1c        ..      ITT      NE
        0x00002574:    f8d5c000    ....    LDRNE    r12,[r5,#0]
        0x00002578:    2200        ."      MOVNE    r2,#0
        0x0000257a:    d007        ..      BEQ      0x258c ; IntRegister + 36
        0x0000257c:    f85c4022    \."@    LDR      r4,[r12,r2,LSL #2]
        0x00002580:    f8434022    C."@    STR      r4,[r3,r2,LSL #2]
        0x00002584:    1c52        R.      ADDS     r2,r2,#1
        0x00002586:    2a9b        .*      CMP      r2,#0x9b
        0x00002588:    d3f8        ..      BCC      0x257c ; IntRegister + 20
        0x0000258a:    602b        +`      STR      r3,[r5,#0]
        0x0000258c:    f8431020    C. .    STR      r1,[r3,r0,LSL #2]
        0x00002590:    bc30        0.      POP      {r4,r5}
        0x00002592:    4770        pG      BX       lr
    $d
        0x00002594:    e000ed08    ....    DCD    3758157064
        0x00002598:    20000400    ...     DCD    536871936
    $t
    i.IntTrigger
    IntTrigger
        0x0000259c:    4901        .I      LDR      r1,[pc,#4] ; [0x25a4] = 0xe000ef00
        0x0000259e:    3810        .8      SUBS     r0,r0,#0x10
        0x000025a0:    6008        .`      STR      r0,[r1,#0]
        0x000025a2:    4770        pG      BX       lr
    $d
        0x000025a4:    e000ef00    ....    DCD    3758157568
    $t
    i.IntUnregister
    IntUnregister
        0x000025a8:    4a03        .J      LDR      r2,[pc,#12] ; [0x25b8] = 0x20000400
        0x000025aa:    4902        .I      LDR      r1,[pc,#8] ; [0x25b4] = 0x46fd
        0x000025ac:    f8421020    B. .    STR      r1,[r2,r0,LSL #2]
        0x000025b0:    4770        pG      BX       lr
    $d
        0x000025b2:    0000        ..      DCW    0
        0x000025b4:    000046fd    .F..    DCD    18173
        0x000025b8:    20000400    ...     DCD    536871936
    $t
    i.IsBufferEmpty
    IsBufferEmpty
        0x000025bc:    b510        ..      PUSH     {r4,lr}
        0x000025be:    4602        .F      MOV      r2,r0
        0x000025c0:    680b        .h      LDR      r3,[r1,#0]
        0x000025c2:    6814        .h      LDR      r4,[r2,#0]
        0x000025c4:    42a3        .B      CMP      r3,r4
        0x000025c6:    d101        ..      BNE      0x25cc ; IsBufferEmpty + 16
        0x000025c8:    2001        .       MOVS     r0,#1
        0x000025ca:    bd10        ..      POP      {r4,pc}
        0x000025cc:    2000        .       MOVS     r0,#0
        0x000025ce:    e7fc        ..      B        0x25ca ; IsBufferEmpty + 14
    i.IsBufferFull
    IsBufferFull
        0x000025d0:    b570        p.      PUSH     {r4-r6,lr}
        0x000025d2:    4603        .F      MOV      r3,r0
        0x000025d4:    680d        .h      LDR      r5,[r1,#0]
        0x000025d6:    681c        .h      LDR      r4,[r3,#0]
        0x000025d8:    1c68        h.      ADDS     r0,r5,#1
        0x000025da:    fbb0f6f2    ....    UDIV     r6,r0,r2
        0x000025de:    fb020016    ....    MLS      r0,r2,r6,r0
        0x000025e2:    42a0        .B      CMP      r0,r4
        0x000025e4:    d101        ..      BNE      0x25ea ; IsBufferFull + 26
        0x000025e6:    2001        .       MOVS     r0,#1
        0x000025e8:    bd70        p.      POP      {r4-r6,pc}
        0x000025ea:    2000        .       MOVS     r0,#0
        0x000025ec:    e7fc        ..      B        0x25e8 ; IsBufferFull + 24
        0x000025ee:    0000        ..      MOVS     r0,r0
    i.MPU9150AppCallback
    MPU9150AppCallback
        0x000025f0:    b911        ..      CBNZ     r1,0x25f8 ; MPU9150AppCallback + 8
        0x000025f2:    2201        ."      MOVS     r2,#1
        0x000025f4:    4b02        .K      LDR      r3,[pc,#8] ; [0x2600] = 0x20000000
        0x000025f6:    601a        .`      STR      r2,[r3,#0]
        0x000025f8:    4a02        .J      LDR      r2,[pc,#8] ; [0x2604] = 0x20000004
        0x000025fa:    6011        .`      STR      r1,[r2,#0]
        0x000025fc:    4770        pG      BX       lr
    $d
        0x000025fe:    0000        ..      DCW    0
        0x00002600:    20000000    ...     DCD    536870912
        0x00002604:    20000004    ...     DCD    536870916
    $t
    i.MPU9150AppErrorHandler
    MPU9150AppErrorHandler
        0x00002608:    4604        .F      MOV      r4,r0
        0x0000260a:    460d        .F      MOV      r5,r1
        0x0000260c:    a00e        ..      ADR      r0,{pc}+0x3c ; 0x2648
        0x0000260e:    f001fe83    ....    BL       UARTprintf ; 0x4318
        0x00002612:    462b        +F      MOV      r3,r5
        0x00002614:    4622        "F      MOV      r2,r4
        0x00002616:    480e        .H      LDR      r0,[pc,#56] ; [0x2650] = 0x20000004
        0x00002618:    6801        .h      LDR      r1,[r0,#0]
        0x0000261a:    480e        .H      LDR      r0,[pc,#56] ; [0x2654] = 0x5aac
        0x0000261c:    f001fe7c    ..|.    BL       UARTprintf ; 0x4318
        0x00002620:    a00d        ..      ADR      r0,{pc}+0x38 ; 0x2658
        0x00002622:    f001fe79    ..y.    BL       UARTprintf ; 0x4318
        0x00002626:    f64f70ff    O..p    MOV      r0,#0xffff
        0x0000262a:    490d        .I      LDR      r1,[pc,#52] ; [0x2660] = 0x2000066c
        0x0000262c:    6008        .`      STR      r0,[r1,#0]
        0x0000262e:    2000        .       MOVS     r0,#0
        0x00002630:    6048        H`      STR      r0,[r1,#4]
        0x00002632:    6088        .`      STR      r0,[r1,#8]
        0x00002634:    4608        .F      MOV      r0,r1
        0x00002636:    f000fbcb    ....    BL       RGBColorSet ; 0x2dd0
        0x0000263a:    eeb20a04    ....    VMOV.F32 s0,#10.00000000
        0x0000263e:    f000fb7b    ..{.    BL       RGBBlinkRateSet ; 0x2d38
        0x00002642:    bf00        ..      NOP      
        0x00002644:    e7fe        ..      B        0x2644 ; MPU9150AppErrorHandler + 60
    $d
        0x00002646:    0000        ..      DCW    0
        0x00002648:    31335b1b    .[31    DCD    825449243
        0x0000264c:    006d313b    ;1m.    DCD    7156027
        0x00002650:    20000004    ...     DCD    536870916
        0x00002654:    00005aac    .Z..    DCD    23212
        0x00002658:    6d305b1b    .[0m    DCD    1831885595
        0x0000265c:    00000000    ....    DCD    0
        0x00002660:    2000066c    l..     DCD    536872556
    $t
    i.MPU9150AppI2CWait
    MPU9150AppI2CWait
        0x00002664:    b570        p.      PUSH     {r4-r6,lr}
        0x00002666:    4604        .F      MOV      r4,r0
        0x00002668:    460d        .F      MOV      r5,r1
        0x0000266a:    bf00        ..      NOP      
        0x0000266c:    4808        .H      LDR      r0,[pc,#32] ; [0x2690] = 0x20000000
        0x0000266e:    6800        .h      LDR      r0,[r0,#0]
        0x00002670:    b918        ..      CBNZ     r0,0x267a ; MPU9150AppI2CWait + 22
        0x00002672:    4808        .H      LDR      r0,[pc,#32] ; [0x2694] = 0x20000004
        0x00002674:    6800        .h      LDR      r0,[r0,#0]
        0x00002676:    2800        .(      CMP      r0,#0
        0x00002678:    d0f8        ..      BEQ      0x266c ; MPU9150AppI2CWait + 8
        0x0000267a:    4806        .H      LDR      r0,[pc,#24] ; [0x2694] = 0x20000004
        0x0000267c:    6800        .h      LDR      r0,[r0,#0]
        0x0000267e:    b118        ..      CBZ      r0,0x2688 ; MPU9150AppI2CWait + 36
        0x00002680:    4629        )F      MOV      r1,r5
        0x00002682:    4620         F      MOV      r0,r4
        0x00002684:    f7ffffc0    ....    BL       MPU9150AppErrorHandler ; 0x2608
        0x00002688:    2000        .       MOVS     r0,#0
        0x0000268a:    4901        .I      LDR      r1,[pc,#4] ; [0x2690] = 0x20000000
        0x0000268c:    6008        .`      STR      r0,[r1,#0]
        0x0000268e:    bd70        p.      POP      {r4-r6,pc}
    $d
        0x00002690:    20000000    ...     DCD    536870912
        0x00002694:    20000004    ...     DCD    536870916
    $t
    i.MPU9150Callback
    MPU9150Callback
        0x00002698:    b5f0        ..      PUSH     {r4-r7,lr}
        0x0000269a:    000d        ..      MOVS     r5,r1
        0x0000269c:    b087        ..      SUB      sp,sp,#0x1c
        0x0000269e:    4604        .F      MOV      r4,r0
        0x000026a0:    f04f0100    O...    MOV      r1,#0
        0x000026a4:    d006        ..      BEQ      0x26b4 ; MPU9150Callback + 28
        0x000026a6:    2d01        .-      CMP      r5,#1
        0x000026a8:    bf06        ..      ITTE     EQ
        0x000026aa:    f8940031    ..1.    LDRBEQ   r0,[r4,#0x31]
        0x000026ae:    2806        .(      CMPEQ    r0,#6
        0x000026b0:    f8841031    ..1.    STRBNE   r1,[r4,#0x31]
        0x000026b4:    f8940031    ..1.    LDRB     r0,[r4,#0x31]
        0x000026b8:    280c        .(      CMP      r0,#0xc
        0x000026ba:    d207        ..      BCS      0x26cc ; MPU9150Callback + 52
        0x000026bc:    e8dff000    ....    TBB      [pc,r0]
    $d
        0x000026c0:    cb060606    ....    DCD    3406169606
        0x000026c4:    58200ae0    .. X    DCD    1478494944
        0x000026c8:    ad917e6b    k~..    DCD    2911993451
    $t
        0x000026cc:    f8841031    ..1.    STRB     r1,[r4,#0x31]
        0x000026d0:    f000b8cb    ....    B.W      0x286a ; MPU9150Callback + 466
        0x000026d4:    206b        k       MOVS     r0,#0x6b
        0x000026d6:    f8840058    ..X.    STRB     r0,[r4,#0x58]
        0x000026da:    f8941030    ..0.    LDRB     r1,[r4,#0x30]
        0x000026de:    6820         h      LDR      r0,[r4,#0]
        0x000026e0:    2301        .#      MOVS     r3,#1
        0x000026e2:    4d7a        zM      LDR      r5,[pc,#488] ; [0x28cc] = 0x2699
        0x000026e4:    9405        ..      STR      r4,[sp,#0x14]
        0x000026e6:    9302        ..      STR      r3,[sp,#8]
        0x000026e8:    e9cd3503    ...5    STRD     r3,r5,[sp,#0xc]
        0x000026ec:    f1040c36    ..6.    ADD      r12,r4,#0x36
        0x000026f0:    e9cd3c00    ...<    STRD     r3,r12,[sp,#0]
        0x000026f4:    f1040258    ..X.    ADD      r2,r4,#0x58
        0x000026f8:    f7fff858    ..X.    BL       I2CMCommand ; 0x17ac
        0x000026fc:    2006        .       MOVS     r0,#6
        0x000026fe:    e017        ..      B        0x2730 ; MPU9150Callback + 152
        0x00002700:    f8940036    ..6.    LDRB     r0,[r4,#0x36]
        0x00002704:    2840        @(      CMP      r0,#0x40
        0x00002706:    d117        ..      BNE      0x2738 ; MPU9150Callback + 160
        0x00002708:    2d01        .-      CMP      r5,#1
        0x0000270a:    d015        ..      BEQ      0x2738 ; MPU9150Callback + 160
        0x0000270c:    206b        k       MOVS     r0,#0x6b
        0x0000270e:    f8840058    ..X.    STRB     r0,[r4,#0x58]
        0x00002712:    2001        .       MOVS     r0,#1
        0x00002714:    f8840059    ..Y.    STRB     r0,[r4,#0x59]
        0x00002718:    486c        lH      LDR      r0,[pc,#432] ; [0x28cc] = 0x2699
        0x0000271a:    e9cd0400    ....    STRD     r0,r4,[sp,#0]
        0x0000271e:    f8941030    ..0.    LDRB     r1,[r4,#0x30]
        0x00002722:    2302        .#      MOVS     r3,#2
        0x00002724:    f1040258    ..X.    ADD      r2,r4,#0x58
        0x00002728:    6820         h      LDR      r0,[r4,#0]
        0x0000272a:    f7fffbc1    ....    BL       I2CMWrite ; 0x1eb0
        0x0000272e:    2007        .       MOVS     r0,#7
        0x00002730:    f8840031    ..1.    STRB     r0,[r4,#0x31]
        0x00002734:    b007        ..      ADD      sp,sp,#0x1c
        0x00002736:    bdf0        ..      POP      {r4-r7,pc}
        0x00002738:    206b        k       MOVS     r0,#0x6b
        0x0000273a:    f8840058    ..X.    STRB     r0,[r4,#0x58]
        0x0000273e:    f8947030    ..0p    LDRB     r7,[r4,#0x30]
        0x00002742:    6820         h      LDR      r0,[r4,#0]
        0x00002744:    2301        .#      MOVS     r3,#1
        0x00002746:    4961        aI      LDR      r1,[pc,#388] ; [0x28cc] = 0x2699
        0x00002748:    9405        ..      STR      r4,[sp,#0x14]
        0x0000274a:    9302        ..      STR      r3,[sp,#8]
        0x0000274c:    e9cd3103    ...1    STRD     r3,r1,[sp,#0xc]
        0x00002750:    f1040c36    ..6.    ADD      r12,r4,#0x36
        0x00002754:    e9cd3c00    ...<    STRD     r3,r12,[sp,#0]
        0x00002758:    f1040258    ..X.    ADD      r2,r4,#0x58
        0x0000275c:    4639        9F      MOV      r1,r7
        0x0000275e:    f7fff825    ..%.    BL       I2CMCommand ; 0x17ac
        0x00002762:    f8940031    ..1.    LDRB     r0,[r4,#0x31]
        0x00002766:    2800        .(      CMP      r0,#0
        0x00002768:    bf1c        ..      ITT      NE
        0x0000276a:    b007        ..      ADDNE    sp,sp,#0x1c
        0x0000276c:    bdf0        ..      POPNE    {r4-r7,pc}
        0x0000276e:    e07c        |.      B        0x286a ; MPU9150Callback + 466
        0x00002770:    206a        j       MOVS     r0,#0x6a
        0x00002772:    f8840058    ..X.    STRB     r0,[r4,#0x58]
        0x00002776:    2020                MOVS     r0,#0x20
        0x00002778:    f8840059    ..Y.    STRB     r0,[r4,#0x59]
        0x0000277c:    4853        SH      LDR      r0,[pc,#332] ; [0x28cc] = 0x2699
        0x0000277e:    e9cd0400    ....    STRD     r0,r4,[sp,#0]
        0x00002782:    f8941030    ..0.    LDRB     r1,[r4,#0x30]
        0x00002786:    2302        .#      MOVS     r3,#2
        0x00002788:    f1040258    ..X.    ADD      r2,r4,#0x58
        0x0000278c:    6820         h      LDR      r0,[r4,#0]
        0x0000278e:    f7fffb8f    ....    BL       I2CMWrite ; 0x1eb0
        0x00002792:    2008        .       MOVS     r0,#8
        0x00002794:    e7cc        ..      B        0x2730 ; MPU9150Callback + 152
        0x00002796:    2019        .       MOVS     r0,#0x19
        0x00002798:    f8840058    ..X.    STRB     r0,[r4,#0x58]
        0x0000279c:    2013        .       MOVS     r0,#0x13
        0x0000279e:    f8840059    ..Y.    STRB     r0,[r4,#0x59]
        0x000027a2:    484a        JH      LDR      r0,[pc,#296] ; [0x28cc] = 0x2699
        0x000027a4:    e9cd0400    ....    STRD     r0,r4,[sp,#0]
        0x000027a8:    f8941030    ..0.    LDRB     r1,[r4,#0x30]
        0x000027ac:    2302        .#      MOVS     r3,#2
        0x000027ae:    f1040258    ..X.    ADD      r2,r4,#0x58
        0x000027b2:    6820         h      LDR      r0,[r4,#0]
        0x000027b4:    f7fffb7c    ..|.    BL       I2CMWrite ; 0x1eb0
        0x000027b8:    2009        .       MOVS     r0,#9
        0x000027ba:    e7b9        ..      B        0x2730 ; MPU9150Callback + 152
        0x000027bc:    2067        g       MOVS     r0,#0x67
        0x000027be:    f8840058    ..X.    STRB     r0,[r4,#0x58]
        0x000027c2:    2011        .       MOVS     r0,#0x11
        0x000027c4:    f8840059    ..Y.    STRB     r0,[r4,#0x59]
        0x000027c8:    4840        @H      LDR      r0,[pc,#256] ; [0x28cc] = 0x2699
        0x000027ca:    e9cd0400    ....    STRD     r0,r4,[sp,#0]
        0x000027ce:    f8941030    ..0.    LDRB     r1,[r4,#0x30]
        0x000027d2:    2302        .#      MOVS     r3,#2
        0x000027d4:    f1040258    ..X.    ADD      r2,r4,#0x58
        0x000027d8:    6820         h      LDR      r0,[r4,#0]
        0x000027da:    f7fffb69    ..i.    BL       I2CMWrite ; 0x1eb0
        0x000027de:    200a        .       MOVS     r0,#0xa
        0x000027e0:    e7a6        ..      B        0x2730 ; MPU9150Callback + 152
        0x000027e2:    2024        $       MOVS     r0,#0x24
        0x000027e4:    f8840058    ..X.    STRB     r0,[r4,#0x58]
        0x000027e8:    204d        M       MOVS     r0,#0x4d
        0x000027ea:    f8840059    ..Y.    STRB     r0,[r4,#0x59]
        0x000027ee:    208c        .       MOVS     r0,#0x8c
        0x000027f0:    f884005a    ..Z.    STRB     r0,[r4,#0x5a]
        0x000027f4:    2002        .       MOVS     r0,#2
        0x000027f6:    f884005b    ..[.    STRB     r0,[r4,#0x5b]
        0x000027fa:    2088        .       MOVS     r0,#0x88
        0x000027fc:    f884005c    ..\.    STRB     r0,[r4,#0x5c]
        0x00002800:    4832        2H      LDR      r0,[pc,#200] ; [0x28cc] = 0x2699
        0x00002802:    e9cd0400    ....    STRD     r0,r4,[sp,#0]
        0x00002806:    f8941030    ..0.    LDRB     r1,[r4,#0x30]
        0x0000280a:    2305        .#      MOVS     r3,#5
        0x0000280c:    f1040258    ..X.    ADD      r2,r4,#0x58
        0x00002810:    6820         h      LDR      r0,[r4,#0]
        0x00002812:    f7fffb4d    ..M.    BL       I2CMWrite ; 0x1eb0
        0x00002816:    200b        .       MOVS     r0,#0xb
        0x00002818:    e78a        ..      B        0x2730 ; MPU9150Callback + 152
        0x0000281a:    2031        1       MOVS     r0,#0x31
        0x0000281c:    f8840058    ..X.    STRB     r0,[r4,#0x58]
        0x00002820:    200c        .       MOVS     r0,#0xc
        0x00002822:    f8840059    ..Y.    STRB     r0,[r4,#0x59]
        0x00002826:    200a        .       MOVS     r0,#0xa
        0x00002828:    f884005a    ..Z.    STRB     r0,[r4,#0x5a]
        0x0000282c:    2501        .%      MOVS     r5,#1
        0x0000282e:    f884505b    ..[P    STRB     r5,[r4,#0x5b]
        0x00002832:    2084        .       MOVS     r0,#0x84
        0x00002834:    f884005c    ..\.    STRB     r0,[r4,#0x5c]
        0x00002838:    4824        $H      LDR      r0,[pc,#144] ; [0x28cc] = 0x2699
        0x0000283a:    e9cd0400    ....    STRD     r0,r4,[sp,#0]
        0x0000283e:    f8941030    ..0.    LDRB     r1,[r4,#0x30]
        0x00002842:    2305        .#      MOVS     r3,#5
        0x00002844:    f1040258    ..X.    ADD      r2,r4,#0x58
        0x00002848:    6820         h      LDR      r0,[r4,#0]
        0x0000284a:    f7fffb31    ..1.    BL       I2CMWrite ; 0x1eb0
        0x0000284e:    f8845031    ..1P    STRB     r5,[r4,#0x31]
        0x00002852:    b007        ..      ADD      sp,sp,#0x1c
        0x00002854:    bdf0        ..      POP      {r4-r7,pc}
        0x00002856:    f8940033    ..3.    LDRB     r0,[r4,#0x33]
        0x0000285a:    f8840032    ..2.    STRB     r0,[r4,#0x32]
        0x0000285e:    f8940035    ..5.    LDRB     r0,[r4,#0x35]
        0x00002862:    f8840034    ..4.    STRB     r0,[r4,#0x34]
        0x00002866:    f8841031    ..1.    STRB     r1,[r4,#0x31]
        0x0000286a:    6d22        "m      LDR      r2,[r4,#0x50]
        0x0000286c:    2a00        .*      CMP      r2,#0
        0x0000286e:    bf04        ..      ITT      EQ
        0x00002870:    b007        ..      ADDEQ    sp,sp,#0x1c
        0x00002872:    bdf0        ..      POPEQ    {r4-r7,pc}
        0x00002874:    4629        )F      MOV      r1,r5
        0x00002876:    6d60        `m      LDR      r0,[r4,#0x54]
        0x00002878:    b007        ..      ADD      sp,sp,#0x1c
        0x0000287a:    e8bd40f0    ...@    POP      {r4-r7,lr}
        0x0000287e:    4710        .G      BX       r2
        0x00002880:    f894005c    ..\.    LDRB     r0,[r4,#0x5c]
        0x00002884:    286b        k(      CMP      r0,#0x6b
        0x00002886:    d00b        ..      BEQ      0x28a0 ; MPU9150Callback + 520
        0x00002888:    281b        .(      CMP      r0,#0x1b
        0x0000288a:    d018        ..      BEQ      0x28be ; MPU9150Callback + 550
        0x0000288c:    281c        .(      CMP      r0,#0x1c
        0x0000288e:    f47faf1d    ....    BNE      0x26cc ; MPU9150Callback + 52
        0x00002892:    f894005d    ..].    LDRB     r0,[r4,#0x5d]
        0x00002896:    f3c000c1    ....    UBFX     r0,r0,#3,#2
        0x0000289a:    f8840032    ..2.    STRB     r0,[r4,#0x32]
        0x0000289e:    e715        ..      B        0x26cc ; MPU9150Callback + 52
        0x000028a0:    f894005d    ..].    LDRB     r0,[r4,#0x5d]
        0x000028a4:    f0100f80    ....    TST      r0,#0x80
        0x000028a8:    f43faf10    ?...    BEQ      0x26cc ; MPU9150Callback + 52
        0x000028ac:    f8841032    ..2.    STRB     r1,[r4,#0x32]
        0x000028b0:    f8841033    ..3.    STRB     r1,[r4,#0x33]
        0x000028b4:    f8841034    ..4.    STRB     r1,[r4,#0x34]
        0x000028b8:    f8841035    ..5.    STRB     r1,[r4,#0x35]
        0x000028bc:    e706        ..      B        0x26cc ; MPU9150Callback + 52
        0x000028be:    f894005d    ..].    LDRB     r0,[r4,#0x5d]
        0x000028c2:    f3c000c1    ....    UBFX     r0,r0,#3,#2
        0x000028c6:    f8840034    ..4.    STRB     r0,[r4,#0x34]
        0x000028ca:    e6ff        ..      B        0x26cc ; MPU9150Callback + 52
    $d
        0x000028cc:    00002699    .&..    DCD    9881
    $t
    i.MPU9150DataAccelGetFloat
    MPU9150DataAccelGetFloat
        0x000028d0:    b410        ..      PUSH     {r4}
        0x000028d2:    f890c032    ..2.    LDRB     r12,[r0,#0x32]
        0x000028d6:    4c18        .L      LDR      r4,[pc,#96] ; [0x2938] = 0x5900
        0x000028d8:    eb040c8c    ....    ADD      r12,r4,r12,LSL #2
        0x000028dc:    ed9c0a00    ....    VLDR     s0,[r12,#0]
        0x000028e0:    b169        i.      CBZ      r1,0x28fe ; MPU9150DataAccelGetFloat + 46
        0x000028e2:    f8b0c036    ..6.    LDRH     r12,[r0,#0x36]
        0x000028e6:    fa9cfc9c    ....    REV16    r12,r12
        0x000028ea:    fa0ffc8c    ....    SXTH     r12,r12
        0x000028ee:    ee00ca90    ....    VMOV     s1,r12
        0x000028f2:    eef80ae0    ....    VCVT.F32.S32 s1,s1
        0x000028f6:    ee600a80    `...    VMUL.F32 s1,s1,s0
        0x000028fa:    edc10a00    ....    VSTR     s1,[r1,#0]
        0x000028fe:    b152        R.      CBZ      r2,0x2916 ; MPU9150DataAccelGetFloat + 70
        0x00002900:    8f01        ..      LDRH     r1,[r0,#0x38]
        0x00002902:    ba49        I.      REV16    r1,r1
        0x00002904:    b209        ..      SXTH     r1,r1
        0x00002906:    ee001a90    ....    VMOV     s1,r1
        0x0000290a:    eef80ae0    ....    VCVT.F32.S32 s1,s1
        0x0000290e:    ee600a80    `...    VMUL.F32 s1,s1,s0
        0x00002912:    edc20a00    ....    VSTR     s1,[r2,#0]
        0x00002916:    2b00        .+      CMP      r3,#0
        0x00002918:    bf04        ..      ITT      EQ
        0x0000291a:    bc10        ..      POPEQ    {r4}
        0x0000291c:    4770        pG      BXEQ     lr
        0x0000291e:    8f40        @.      LDRH     r0,[r0,#0x3a]
        0x00002920:    ba40        @.      REV16    r0,r0
        0x00002922:    b200        ..      SXTH     r0,r0
        0x00002924:    ee000a90    ....    VMOV     s1,r0
        0x00002928:    eef80ae0    ....    VCVT.F32.S32 s1,s1
        0x0000292c:    ee200a80     ...    VMUL.F32 s0,s1,s0
        0x00002930:    ed830a00    ....    VSTR     s0,[r3,#0]
        0x00002934:    bc10        ..      POP      {r4}
        0x00002936:    4770        pG      BX       lr
    $d
        0x00002938:    00005900    .Y..    DCD    22784
    $t
    i.MPU9150DataAccelGetRaw
    MPU9150DataAccelGetRaw
        0x0000293c:    b129        ).      CBZ      r1,0x294a ; MPU9150DataAccelGetRaw + 14
        0x0000293e:    f8b0c036    ..6.    LDRH     r12,[r0,#0x36]
        0x00002942:    fa9cfc9c    ....    REV16    r12,r12
        0x00002946:    f8c1c000    ....    STR      r12,[r1,#0]
        0x0000294a:    b112        ..      CBZ      r2,0x2952 ; MPU9150DataAccelGetRaw + 22
        0x0000294c:    8f01        ..      LDRH     r1,[r0,#0x38]
        0x0000294e:    ba49        I.      REV16    r1,r1
        0x00002950:    6011        .`      STR      r1,[r2,#0]
        0x00002952:    2b00        .+      CMP      r3,#0
        0x00002954:    bf08        ..      IT       EQ
        0x00002956:    4770        pG      BXEQ     lr
        0x00002958:    8f40        @.      LDRH     r0,[r0,#0x3a]
        0x0000295a:    ba40        @.      REV16    r0,r0
        0x0000295c:    6018        .`      STR      r0,[r3,#0]
        0x0000295e:    4770        pG      BX       lr
    i.MPU9150DataGyroGetFloat
    MPU9150DataGyroGetFloat
        0x00002960:    b410        ..      PUSH     {r4}
        0x00002962:    f890c034    ..4.    LDRB     r12,[r0,#0x34]
        0x00002966:    4c1d        .L      LDR      r4,[pc,#116] ; [0x29dc] = 0x5910
        0x00002968:    eb040c8c    ....    ADD      r12,r4,r12,LSL #2
        0x0000296c:    ed9c0a00    ....    VLDR     s0,[r12,#0]
        0x00002970:    b179        y.      CBZ      r1,0x2992 ; MPU9150DataGyroGetFloat + 50
        0x00002972:    f890c03e    ..>.    LDRB     r12,[r0,#0x3e]
        0x00002976:    f890403f    ..?@    LDRB     r4,[r0,#0x3f]
        0x0000297a:    eb042c0c    ...,    ADD      r12,r4,r12,LSL #8
        0x0000297e:    fa0ffc8c    ....    SXTH     r12,r12
        0x00002982:    ee00ca90    ....    VMOV     s1,r12
        0x00002986:    eef80ae0    ....    VCVT.F32.S32 s1,s1
        0x0000298a:    ee600a80    `...    VMUL.F32 s1,s1,s0
        0x0000298e:    edc10a00    ....    VSTR     s1,[r1,#0]
        0x00002992:    b172        r.      CBZ      r2,0x29b2 ; MPU9150DataGyroGetFloat + 82
        0x00002994:    f8901040    ..@.    LDRB     r1,[r0,#0x40]
        0x00002998:    f890c041    ..A.    LDRB     r12,[r0,#0x41]
        0x0000299c:    eb0c2101    ...!    ADD      r1,r12,r1,LSL #8
        0x000029a0:    b209        ..      SXTH     r1,r1
        0x000029a2:    ee001a90    ....    VMOV     s1,r1
        0x000029a6:    eef80ae0    ....    VCVT.F32.S32 s1,s1
        0x000029aa:    ee600a80    `...    VMUL.F32 s1,s1,s0
        0x000029ae:    edc20a00    ....    VSTR     s1,[r2,#0]
        0x000029b2:    2b00        .+      CMP      r3,#0
        0x000029b4:    bf04        ..      ITT      EQ
        0x000029b6:    bc10        ..      POPEQ    {r4}
        0x000029b8:    4770        pG      BXEQ     lr
        0x000029ba:    f8901042    ..B.    LDRB     r1,[r0,#0x42]
        0x000029be:    f8900043    ..C.    LDRB     r0,[r0,#0x43]
        0x000029c2:    eb002001    ...     ADD      r0,r0,r1,LSL #8
        0x000029c6:    b200        ..      SXTH     r0,r0
        0x000029c8:    ee000a90    ....    VMOV     s1,r0
        0x000029cc:    eef80ae0    ....    VCVT.F32.S32 s1,s1
        0x000029d0:    ee200a80     ...    VMUL.F32 s0,s1,s0
        0x000029d4:    ed830a00    ....    VSTR     s0,[r3,#0]
        0x000029d8:    bc10        ..      POP      {r4}
        0x000029da:    4770        pG      BX       lr
    $d
        0x000029dc:    00005910    .Y..    DCD    22800
    $t
    i.MPU9150DataGyroGetRaw
    MPU9150DataGyroGetRaw
        0x000029e0:    b129        ).      CBZ      r1,0x29ee ; MPU9150DataGyroGetRaw + 14
        0x000029e2:    f8b0c03e    ..>.    LDRH     r12,[r0,#0x3e]
        0x000029e6:    fa9cfc9c    ....    REV16    r12,r12
        0x000029ea:    f8c1c000    ....    STR      r12,[r1,#0]
        0x000029ee:    b11a        ..      CBZ      r2,0x29f8 ; MPU9150DataGyroGetRaw + 24
        0x000029f0:    f8b01040    ..@.    LDRH     r1,[r0,#0x40]
        0x000029f4:    ba49        I.      REV16    r1,r1
        0x000029f6:    6011        .`      STR      r1,[r2,#0]
        0x000029f8:    2b00        .+      CMP      r3,#0
        0x000029fa:    bf08        ..      IT       EQ
        0x000029fc:    4770        pG      BXEQ     lr
        0x000029fe:    f8b00042    ..B.    LDRH     r0,[r0,#0x42]
        0x00002a02:    ba40        @.      REV16    r0,r0
        0x00002a04:    6018        .`      STR      r0,[r3,#0]
        0x00002a06:    4770        pG      BX       lr
    i.MPU9150DataMagnetoGetFloat
    MPU9150DataMagnetoGetFloat
        0x00002a08:    e92d41f0    -..A    PUSH     {r4-r8,lr}
        0x00002a0c:    461d        .F      MOV      r5,r3
        0x00002a0e:    ed2d8b02    -...    VPUSH    {d8}
        0x00002a12:    4616        .F      MOV      r6,r2
        0x00002a14:    ed9f8b22    ..".    VLDR     d8,[pc,#136] ; [0x2aa0] = 0xf40d8376
        0x00002a18:    000f        ..      MOVS     r7,r1
        0x00002a1a:    f1000445    ..E.    ADD      r4,r0,#0x45
        0x00002a1e:    d010        ..      BEQ      0x2a42 ; MPU9150DataMagnetoGetFloat + 58
        0x00002a20:    f9b40000    ....    LDRSH    r0,[r4,#0]
        0x00002a24:    ee000a10    ....    VMOV     s0,r0
        0x00002a28:    eeb80ac0    ....    VCVT.F32.S32 s0,s0
        0x00002a2c:    ee100a10    ....    VMOV     r0,s0
        0x00002a30:    f7fdfd89    ....    BL       __aeabi_f2d ; 0x546
        0x00002a34:    ec532b18    S..+    VMOV     r2,r3,d8
        0x00002a38:    f7fdfcfd    ....    BL       __aeabi_dmul ; 0x436
        0x00002a3c:    f7fdfd96    ....    BL       __aeabi_d2f ; 0x56c
        0x00002a40:    6038        8`      STR      r0,[r7,#0]
        0x00002a42:    b186        ..      CBZ      r6,0x2a66 ; MPU9150DataMagnetoGetFloat + 94
        0x00002a44:    f9b40002    ....    LDRSH    r0,[r4,#2]
        0x00002a48:    ee000a10    ....    VMOV     s0,r0
        0x00002a4c:    eeb80ac0    ....    VCVT.F32.S32 s0,s0
        0x00002a50:    ee100a10    ....    VMOV     r0,s0
        0x00002a54:    f7fdfd77    ..w.    BL       __aeabi_f2d ; 0x546
        0x00002a58:    ec532b18    S..+    VMOV     r2,r3,d8
        0x00002a5c:    f7fdfceb    ....    BL       __aeabi_dmul ; 0x436
        0x00002a60:    f7fdfd84    ....    BL       __aeabi_d2f ; 0x56c
        0x00002a64:    6030        0`      STR      r0,[r6,#0]
        0x00002a66:    2d00        .-      CMP      r5,#0
        0x00002a68:    bf04        ..      ITT      EQ
        0x00002a6a:    ecbd8b02    ....    VPOPEQ   {d8}
        0x00002a6e:    e8bd81f0    ....    POPEQ    {r4-r8,pc}
        0x00002a72:    f9b40004    ....    LDRSH    r0,[r4,#4]
        0x00002a76:    ee000a10    ....    VMOV     s0,r0
        0x00002a7a:    eeb80ac0    ....    VCVT.F32.S32 s0,s0
        0x00002a7e:    ee100a10    ....    VMOV     r0,s0
        0x00002a82:    f7fdfd60    ..`.    BL       __aeabi_f2d ; 0x546
        0x00002a86:    ec532b18    S..+    VMOV     r2,r3,d8
        0x00002a8a:    f7fdfcd4    ....    BL       __aeabi_dmul ; 0x436
        0x00002a8e:    f7fdfd6d    ..m.    BL       __aeabi_d2f ; 0x56c
        0x00002a92:    6028        (`      STR      r0,[r5,#0]
        0x00002a94:    ecbd8b02    ....    VPOP     {d8}
        0x00002a98:    e8bd81f0    ....    POP      {r4-r8,pc}
    $d
        0x00002a9c:    00000000    ....    DCD    0
        0x00002aa0:    f40d8376    v...    DCD    4094526326
        0x00002aa4:    3e9421f5    .!.>    DCD    1049895413
    $t
    i.MPU9150DataMagnetoGetRaw
    MPU9150DataMagnetoGetRaw
        0x00002aa8:    3044        D0      ADDS     r0,r0,#0x44
        0x00002aaa:    2900        .)      CMP      r1,#0
        0x00002aac:    bf1c        ..      ITT      NE
        0x00002aae:    f8b0c001    ....    LDRHNE   r12,[r0,#1]
        0x00002ab2:    f8c1c000    ....    STRNE    r12,[r1,#0]
        0x00002ab6:    2a00        .*      CMP      r2,#0
        0x00002ab8:    bf1c        ..      ITT      NE
        0x00002aba:    f8b01003    ....    LDRHNE   r1,[r0,#3]
        0x00002abe:    6011        .`      STRNE    r1,[r2,#0]
        0x00002ac0:    2b00        .+      CMP      r3,#0
        0x00002ac2:    bf1c        ..      ITT      NE
        0x00002ac4:    f8b00005    ....    LDRHNE   r0,[r0,#5]
        0x00002ac8:    6018        .`      STRNE    r0,[r3,#0]
        0x00002aca:    4770        pG      BX       lr
    i.MPU9150DataRead
    MPU9150DataRead
        0x00002acc:    b570        p.      PUSH     {r4-r6,lr}
        0x00002ace:    4604        .F      MOV      r4,r0
        0x00002ad0:    f8900031    ..1.    LDRB     r0,[r0,#0x31]
        0x00002ad4:    b086        ..      SUB      sp,sp,#0x18
        0x00002ad6:    2800        .(      CMP      r0,#0
        0x00002ad8:    bf1e        ..      ITTT     NE
        0x00002ada:    2000        .       MOVNE    r0,#0
        0x00002adc:    b006        ..      ADDNE    sp,sp,#0x18
        0x00002ade:    bd70        p.      POPNE    {r4-r6,pc}
        0x00002ae0:    200c        .       MOVS     r0,#0xc
        0x00002ae2:    e9c41214    ....    STRD     r1,r2,[r4,#0x50]
        0x00002ae6:    f8840031    ..1.    STRB     r0,[r4,#0x31]
        0x00002aea:    203b        ;       MOVS     r0,#0x3b
        0x00002aec:    f8840058    ..X.    STRB     r0,[r4,#0x58]
        0x00002af0:    f8941030    ..0.    LDRB     r1,[r4,#0x30]
        0x00002af4:    6826        &h      LDR      r6,[r4,#0]
        0x00002af6:    2016        .       MOVS     r0,#0x16
        0x00002af8:    4d0c        .M      LDR      r5,[pc,#48] ; [0x2b2c] = 0x2699
        0x00002afa:    9405        ..      STR      r4,[sp,#0x14]
        0x00002afc:    9002        ..      STR      r0,[sp,#8]
        0x00002afe:    e9cd0503    ....    STRD     r0,r5,[sp,#0xc]
        0x00002b02:    2301        .#      MOVS     r3,#1
        0x00002b04:    f1040c36    ..6.    ADD      r12,r4,#0x36
        0x00002b08:    e9cd3c00    ...<    STRD     r3,r12,[sp,#0]
        0x00002b0c:    f1040258    ..X.    ADD      r2,r4,#0x58
        0x00002b10:    4630        0F      MOV      r0,r6
        0x00002b12:    f7fefe4b    ..K.    BL       I2CMCommand ; 0x17ac
        0x00002b16:    2800        .(      CMP      r0,#0
        0x00002b18:    bf1e        ..      ITTT     NE
        0x00002b1a:    2001        .       MOVNE    r0,#1
        0x00002b1c:    b006        ..      ADDNE    sp,sp,#0x18
        0x00002b1e:    bd70        p.      POPNE    {r4-r6,pc}
        0x00002b20:    2000        .       MOVS     r0,#0
        0x00002b22:    f8840031    ..1.    STRB     r0,[r4,#0x31]
        0x00002b26:    b006        ..      ADD      sp,sp,#0x18
        0x00002b28:    bd70        p.      POP      {r4-r6,pc}
    $d
        0x00002b2a:    0000        ..      DCW    0
        0x00002b2c:    00002699    .&..    DCD    9881
    $t
    i.MPU9150I2CIntHandler
    MPU9150I2CIntHandler
        0x00002b30:    b510        ..      PUSH     {r4,lr}
        0x00002b32:    4802        .H      LDR      r0,[pc,#8] ; [0x2b3c] = 0x20000678
        0x00002b34:    f7fefe9c    ....    BL       I2CMIntHandler ; 0x1870
        0x00002b38:    bd10        ..      POP      {r4,pc}
    $d
        0x00002b3a:    0000        ..      DCW    0
        0x00002b3c:    20000678    x..     DCD    536872568
    $t
    i.MPU9150Init
    MPU9150Init
        0x00002b40:    b530        0.      PUSH     {r4,r5,lr}
        0x00002b42:    b083        ..      SUB      sp,sp,#0xc
        0x00002b44:    4604        .F      MOV      r4,r0
        0x00002b46:    f8ddc018    ....    LDR      r12,[sp,#0x18]
        0x00002b4a:    4608        .F      MOV      r0,r1
        0x00002b4c:    6021        !`      STR      r1,[r4,#0]
        0x00002b4e:    b2d1        ..      UXTB     r1,r2
        0x00002b50:    f8841030    ..0.    STRB     r1,[r4,#0x30]
        0x00002b54:    e9c43c14    ...<    STRD     r3,r12,[r4,#0x50]
        0x00002b58:    2500        .%      MOVS     r5,#0
        0x00002b5a:    f8845032    ..2P    STRB     r5,[r4,#0x32]
        0x00002b5e:    f8845033    ..3P    STRB     r5,[r4,#0x33]
        0x00002b62:    f8845034    ..4P    STRB     r5,[r4,#0x34]
        0x00002b66:    f8845035    ..5P    STRB     r5,[r4,#0x35]
        0x00002b6a:    2205        ."      MOVS     r2,#5
        0x00002b6c:    f8842031    ..1     STRB     r2,[r4,#0x31]
        0x00002b70:    226b        k"      MOVS     r2,#0x6b
        0x00002b72:    f8842058    ..X     STRB     r2,[r4,#0x58]
        0x00002b76:    2280        ."      MOVS     r2,#0x80
        0x00002b78:    f8842059    ..Y     STRB     r2,[r4,#0x59]
        0x00002b7c:    4a07        .J      LDR      r2,[pc,#28] ; [0x2b9c] = 0x2699
        0x00002b7e:    e9cd2400    ...$    STRD     r2,r4,[sp,#0]
        0x00002b82:    2302        .#      MOVS     r3,#2
        0x00002b84:    f1040258    ..X.    ADD      r2,r4,#0x58
        0x00002b88:    f7fff992    ....    BL       I2CMWrite ; 0x1eb0
        0x00002b8c:    2800        .(      CMP      r0,#0
        0x00002b8e:    bf06        ..      ITTE     EQ
        0x00002b90:    f8845031    ..1P    STRBEQ   r5,[r4,#0x31]
        0x00002b94:    2000        .       MOVEQ    r0,#0
        0x00002b96:    2001        .       MOVNE    r0,#1
        0x00002b98:    b003        ..      ADD      sp,sp,#0xc
        0x00002b9a:    bd30        0.      POP      {r4,r5,pc}
    $d
        0x00002b9c:    00002699    .&..    DCD    9881
    $t
    i.MPU9150MagnetoInstGet
    MPU9150MagnetoInstGet
        0x00002ba0:    1d00        ..      ADDS     r0,r0,#4
        0x00002ba2:    4770        pG      BX       lr
    i.MPU9150Read
    MPU9150Read
        0x00002ba4:    b570        p.      PUSH     {r4-r6,lr}
        0x00002ba6:    4604        .F      MOV      r4,r0
        0x00002ba8:    b086        ..      SUB      sp,sp,#0x18
        0x00002baa:    f8945031    ..1P    LDRB     r5,[r4,#0x31]
        0x00002bae:    e9ddc00a    ....    LDRD     r12,r0,[sp,#0x28]
        0x00002bb2:    2d00        .-      CMP      r5,#0
        0x00002bb4:    bf1e        ..      ITTT     NE
        0x00002bb6:    2000        .       MOVNE    r0,#0
        0x00002bb8:    b006        ..      ADDNE    sp,sp,#0x18
        0x00002bba:    bd70        p.      POPNE    {r4-r6,pc}
        0x00002bbc:    e9c4c014    ....    STRD     r12,r0,[r4,#0x50]
        0x00002bc0:    2002        .       MOVS     r0,#2
        0x00002bc2:    f8840031    ..1.    STRB     r0,[r4,#0x31]
        0x00002bc6:    f8841058    ..X.    STRB     r1,[r4,#0x58]
        0x00002bca:    f8941030    ..0.    LDRB     r1,[r4,#0x30]
        0x00002bce:    6825        %h      LDR      r5,[r4,#0]
        0x00002bd0:    f8dfc030    ..0.    LDR      r12,[pc,#48] ; [0x2c04] = 0x2699
        0x00002bd4:    9405        ..      STR      r4,[sp,#0x14]
        0x00002bd6:    9302        ..      STR      r3,[sp,#8]
        0x00002bd8:    e9cd3c03    ...<    STRD     r3,r12,[sp,#0xc]
        0x00002bdc:    2001        .       MOVS     r0,#1
        0x00002bde:    e9cd0200    ....    STRD     r0,r2,[sp,#0]
        0x00002be2:    f1040658    ..X.    ADD      r6,r4,#0x58
        0x00002be6:    4603        .F      MOV      r3,r0
        0x00002be8:    4632        2F      MOV      r2,r6
        0x00002bea:    4628        (F      MOV      r0,r5
        0x00002bec:    f7fefdde    ....    BL       I2CMCommand ; 0x17ac
        0x00002bf0:    2800        .(      CMP      r0,#0
        0x00002bf2:    bf1e        ..      ITTT     NE
        0x00002bf4:    2001        .       MOVNE    r0,#1
        0x00002bf6:    b006        ..      ADDNE    sp,sp,#0x18
        0x00002bf8:    bd70        p.      POPNE    {r4-r6,pc}
        0x00002bfa:    2000        .       MOVS     r0,#0
        0x00002bfc:    f8840031    ..1.    STRB     r0,[r4,#0x31]
        0x00002c00:    b006        ..      ADD      sp,sp,#0x18
        0x00002c02:    bd70        p.      POP      {r4-r6,pc}
    $d
        0x00002c04:    00002699    .&..    DCD    9881
    $t
    i.MPU9150ReadModifyWrite
    MPU9150ReadModifyWrite
        0x00002c08:    b530        0.      PUSH     {r4,r5,lr}
        0x00002c0a:    4604        .F      MOV      r4,r0
        0x00002c0c:    b085        ..      SUB      sp,sp,#0x14
        0x00002c0e:    468c        .F      MOV      r12,r1
        0x00002c10:    e9dd1008    ....    LDRD     r1,r0,[sp,#0x20]
        0x00002c14:    f8945031    ..1P    LDRB     r5,[r4,#0x31]
        0x00002c18:    2d00        .-      CMP      r5,#0
        0x00002c1a:    bf1e        ..      ITTT     NE
        0x00002c1c:    2000        .       MOVNE    r0,#0
        0x00002c1e:    b005        ..      ADDNE    sp,sp,#0x14
        0x00002c20:    bd30        0.      POPNE    {r4,r5,pc}
        0x00002c22:    e9c41014    ....    STRD     r1,r0,[r4,#0x50]
        0x00002c26:    2004        .       MOVS     r0,#4
        0x00002c28:    f8840031    ..1.    STRB     r0,[r4,#0x31]
        0x00002c2c:    480b        .H      LDR      r0,[pc,#44] ; [0x2c5c] = 0x2699
        0x00002c2e:    e9cd0402    ....    STRD     r0,r4,[sp,#8]
        0x00002c32:    e9cd2300    ...#    STRD     r2,r3,[sp,#0]
        0x00002c36:    f8942030    ..0     LDRB     r2,[r4,#0x30]
        0x00002c3a:    4663        cF      MOV      r3,r12
        0x00002c3c:    f1040058    ..X.    ADD      r0,r4,#0x58
        0x00002c40:    6821        !h      LDR      r1,[r4,#0]
        0x00002c42:    f7fff89f    ....    BL       I2CMReadModifyWrite8 ; 0x1d84
        0x00002c46:    2800        .(      CMP      r0,#0
        0x00002c48:    bf1e        ..      ITTT     NE
        0x00002c4a:    2001        .       MOVNE    r0,#1
        0x00002c4c:    b005        ..      ADDNE    sp,sp,#0x14
        0x00002c4e:    bd30        0.      POPNE    {r4,r5,pc}
        0x00002c50:    2000        .       MOVS     r0,#0
        0x00002c52:    f8840031    ..1.    STRB     r0,[r4,#0x31]
        0x00002c56:    b005        ..      ADD      sp,sp,#0x14
        0x00002c58:    bd30        0.      POP      {r4,r5,pc}
    $d
        0x00002c5a:    0000        ..      DCW    0
        0x00002c5c:    00002699    .&..    DCD    9881
    $t
    i.MPU9150Write
    MPU9150Write
        0x00002c60:    b570        p.      PUSH     {r4-r6,lr}
        0x00002c62:    4604        .F      MOV      r4,r0
        0x00002c64:    b084        ..      SUB      sp,sp,#0x10
        0x00002c66:    469c        .F      MOV      r12,r3
        0x00002c68:    e9dd3008    ...0    LDRD     r3,r0,[sp,#0x20]
        0x00002c6c:    f8945031    ..1P    LDRB     r5,[r4,#0x31]
        0x00002c70:    2d00        .-      CMP      r5,#0
        0x00002c72:    bf1e        ..      ITTT     NE
        0x00002c74:    2000        .       MOVNE    r0,#0
        0x00002c76:    b004        ..      ADDNE    sp,sp,#0x10
        0x00002c78:    bd70        p.      POPNE    {r4-r6,pc}
        0x00002c7a:    2500        .%      MOVS     r5,#0
        0x00002c7c:    e9c43014    ...0    STRD     r3,r0,[r4,#0x50]
        0x00002c80:    1850        P.      ADDS     r0,r2,r1
        0x00002c82:    eb01030c    ....    ADD      r3,r1,r12
        0x00002c86:    296b        k)      CMP      r1,#0x6b
        0x00002c88:    d80a        ..      BHI      0x2ca0 ; MPU9150Write + 64
        0x00002c8a:    2b6b        k+      CMP      r3,#0x6b
        0x00002c8c:    d908        ..      BLS      0x2ca0 ; MPU9150Write + 64
        0x00002c8e:    f8106c6b    ..kl    LDRB     r6,[r0,#-0x6b]
        0x00002c92:    f0160f80    ....    TST      r6,#0x80
        0x00002c96:    bf1c        ..      ITT      NE
        0x00002c98:    f8845033    ..3P    STRBNE   r5,[r4,#0x33]
        0x00002c9c:    f8845035    ..5P    STRBNE   r5,[r4,#0x35]
        0x00002ca0:    291b        .)      CMP      r1,#0x1b
        0x00002ca2:    d807        ..      BHI      0x2cb4 ; MPU9150Write + 84
        0x00002ca4:    2b1b        .+      CMP      r3,#0x1b
        0x00002ca6:    d905        ..      BLS      0x2cb4 ; MPU9150Write + 84
        0x00002ca8:    f8106c1b    ...l    LDRB     r6,[r0,#-0x1b]
        0x00002cac:    f3c606c1    ....    UBFX     r6,r6,#3,#2
        0x00002cb0:    f8846035    ..5`    STRB     r6,[r4,#0x35]
        0x00002cb4:    291c        .)      CMP      r1,#0x1c
        0x00002cb6:    d807        ..      BHI      0x2cc8 ; MPU9150Write + 104
        0x00002cb8:    2b1c        .+      CMP      r3,#0x1c
        0x00002cba:    d905        ..      BLS      0x2cc8 ; MPU9150Write + 104
        0x00002cbc:    f8100c1c    ....    LDRB     r0,[r0,#-0x1c]
        0x00002cc0:    f3c000c1    ....    UBFX     r0,r0,#3,#2
        0x00002cc4:    f8840033    ..3.    STRB     r0,[r4,#0x33]
        0x00002cc8:    2003        .       MOVS     r0,#3
        0x00002cca:    f8840031    ..1.    STRB     r0,[r4,#0x31]
        0x00002cce:    480b        .H      LDR      r0,[pc,#44] ; [0x2cfc] = 0x2699
        0x00002cd0:    e9cd2c00    ...,    STRD     r2,r12,[sp,#0]
        0x00002cd4:    e9cd0402    ....    STRD     r0,r4,[sp,#8]
        0x00002cd8:    6820         h      LDR      r0,[r4,#0]
        0x00002cda:    460b        .F      MOV      r3,r1
        0x00002cdc:    4601        .F      MOV      r1,r0
        0x00002cde:    f8942030    ..0     LDRB     r2,[r4,#0x30]
        0x00002ce2:    f1040058    ..X.    ADD      r0,r4,#0x58
        0x00002ce6:    f7fff94d    ..M.    BL       I2CMWrite8 ; 0x1f84
        0x00002cea:    2800        .(      CMP      r0,#0
        0x00002cec:    bf06        ..      ITTE     EQ
        0x00002cee:    f8845031    ..1P    STRBEQ   r5,[r4,#0x31]
        0x00002cf2:    2000        .       MOVEQ    r0,#0
        0x00002cf4:    2001        .       MOVNE    r0,#1
        0x00002cf6:    b004        ..      ADD      sp,sp,#0x10
        0x00002cf8:    bd70        p.      POP      {r4-r6,pc}
    $d
        0x00002cfa:    0000        ..      DCW    0
        0x00002cfc:    00002699    .&..    DCD    9881
    $t
    i.RGBBlinkIntHandler
    RGBBlinkIntHandler
        0x00002d00:    b510        ..      PUSH     {r4,lr}
        0x00002d02:    f04f7080    O..p    MOV      r0,#0x1000000
        0x00002d06:    6bc0        .k      LDR      r0,[r0,#0x3c]
        0x00002d08:    f44f7180    O..q    MOV      r1,#0x100
        0x00002d0c:    6802        .h      LDR      r2,[r0,#0]
        0x00002d0e:    4808        .H      LDR      r0,[pc,#32] ; [0x2d30] = 0x4004f000
        0x00002d10:    4790        .G      BLX      r2
        0x00002d12:    4808        .H      LDR      r0,[pc,#32] ; [0x2d34] = 0x20000034
        0x00002d14:    6800        .h      LDR      r0,[r0,#0]
        0x00002d16:    f0800001    ....    EOR      r0,r0,#1
        0x00002d1a:    4906        .I      LDR      r1,[pc,#24] ; [0x2d34] = 0x20000034
        0x00002d1c:    6008        .`      STR      r0,[r1,#0]
        0x00002d1e:    4608        .F      MOV      r0,r1
        0x00002d20:    6800        .h      LDR      r0,[r0,#0]
        0x00002d22:    b110        ..      CBZ      r0,0x2d2a ; RGBBlinkIntHandler + 42
        0x00002d24:    f000f8d6    ....    BL       RGBEnable ; 0x2ed4
        0x00002d28:    e001        ..      B        0x2d2e ; RGBBlinkIntHandler + 46
        0x00002d2a:    f000f89d    ....    BL       RGBDisable ; 0x2e68
        0x00002d2e:    bd10        ..      POP      {r4,pc}
    $d
        0x00002d30:    4004f000    ...@    DCD    1074065408
        0x00002d34:    20000034    4..     DCD    536870964
    $t
    i.RGBBlinkRateSet
    RGBBlinkRateSet
        0x00002d38:    b570        p.      PUSH     {r4-r6,lr}
        0x00002d3a:    ed2d8b02    -...    VPUSH    {d8}
        0x00002d3e:    eeb08a40    ..@.    VMOV.F32 s16,s0
        0x00002d42:    eeb58ac0    ....    VCMPE.F32 s16,#0.0
        0x00002d46:    eef1fa10    ....    VMRS     APSR_nzcv,FPSCR
        0x00002d4a:    d10a        ..      BNE      0x2d62 ; RGBBlinkRateSet + 42
        0x00002d4c:    f04f7080    O..p    MOV      r0,#0x1000000
        0x00002d50:    6bc0        .k      LDR      r0,[r0,#0x3c]
        0x00002d52:    f44f417f    O..A    MOV      r1,#0xff00
        0x00002d56:    6882        .h      LDR      r2,[r0,#8]
        0x00002d58:    4815        .H      LDR      r0,[pc,#84] ; [0x2db0] = 0x4004f000
        0x00002d5a:    4790        .G      BLX      r2
        0x00002d5c:    f000f8ba    ....    BL       RGBEnable ; 0x2ed4
        0x00002d60:    e022        ".      B        0x2da8 ; RGBBlinkRateSet + 112
        0x00002d62:    f000fb31    ..1.    BL       SysCtlClockGet ; 0x33c8
        0x00002d66:    ee000a10    ....    VMOV     s0,r0
        0x00002d6a:    eeb80a40    ..@.    VCVT.F32.U32 s0,s0
        0x00002d6e:    eef00a00    ....    VMOV.F32 s1,#2.00000000
        0x00002d72:    ee680a20    h. .    VMUL.F32 s1,s16,s1
        0x00002d76:    ee801a20    .. .    VDIV.F32 s2,s0,s1
        0x00002d7a:    ee116a10    ...j    VMOV     r6,s2
        0x00002d7e:    4630        0F      MOV      r0,r6
        0x00002d80:    f7fdfbcb    ....    BL       __aeabi_f2ulz ; 0x51a
        0x00002d84:    4604        .F      MOV      r4,r0
        0x00002d86:    f04f7080    O..p    MOV      r0,#0x1000000
        0x00002d8a:    6bc0        .k      LDR      r0,[r0,#0x3c]
        0x00002d8c:    4622        "F      MOV      r2,r4
        0x00002d8e:    f44f417f    O..A    MOV      r1,#0xff00
        0x00002d92:    6b83        .k      LDR      r3,[r0,#0x38]
        0x00002d94:    4806        .H      LDR      r0,[pc,#24] ; [0x2db0] = 0x4004f000
        0x00002d96:    4798        .G      BLX      r3
        0x00002d98:    f04f7080    O..p    MOV      r0,#0x1000000
        0x00002d9c:    6bc0        .k      LDR      r0,[r0,#0x3c]
        0x00002d9e:    f44f417f    O..A    MOV      r1,#0xff00
        0x00002da2:    6842        Bh      LDR      r2,[r0,#4]
        0x00002da4:    4802        .H      LDR      r0,[pc,#8] ; [0x2db0] = 0x4004f000
        0x00002da6:    4790        .G      BLX      r2
        0x00002da8:    ecbd8b02    ....    VPOP     {d8}
        0x00002dac:    bd70        p.      POP      {r4-r6,pc}
    $d
        0x00002dae:    0000        ..      DCW    0
        0x00002db0:    4004f000    ...@    DCD    1074065408
    $t
    i.RGBColorGet
    RGBColorGet
        0x00002db4:    4601        .F      MOV      r1,r0
        0x00002db6:    2000        .       MOVS     r0,#0
        0x00002db8:    e005        ..      B        0x2dc6 ; RGBColorGet + 18
        0x00002dba:    4a04        .J      LDR      r2,[pc,#16] ; [0x2dcc] = 0x20000860
        0x00002dbc:    f8522020    R.      LDR      r2,[r2,r0,LSL #2]
        0x00002dc0:    f8412020    A.      STR      r2,[r1,r0,LSL #2]
        0x00002dc4:    1c40        @.      ADDS     r0,r0,#1
        0x00002dc6:    2803        .(      CMP      r0,#3
        0x00002dc8:    d3f7        ..      BCC      0x2dba ; RGBColorGet + 6
        0x00002dca:    4770        pG      BX       lr
    $d
        0x00002dcc:    20000860    `..     DCD    536873056
    $t
    i.RGBColorSet
    RGBColorSet
        0x00002dd0:    b53e        >.      PUSH     {r1-r5,lr}
        0x00002dd2:    4605        .F      MOV      r5,r0
        0x00002dd4:    2400        .$      MOVS     r4,#0
        0x00002dd6:    e021        !.      B        0x2e1c ; RGBColorSet + 76
        0x00002dd8:    f8550024    U.$.    LDR      r0,[r5,r4,LSL #2]
        0x00002ddc:    491e        .I      LDR      r1,[pc,#120] ; [0x2e58] = 0x20000860
        0x00002dde:    f8410024    A.$.    STR      r0,[r1,r4,LSL #2]
        0x00002de2:    f8550024    U.$.    LDR      r0,[r5,r4,LSL #2]
        0x00002de6:    ee000a10    ....    VMOV     s0,r0
        0x00002dea:    eef80a40    ..@.    VCVT.F32.U32 s1,s0
        0x00002dee:    481b        .H      LDR      r0,[pc,#108] ; [0x2e5c] = 0x20000030
        0x00002df0:    ed901a00    ....    VLDR     s2,[r0,#0]
        0x00002df4:    eeb60a00    ....    VMOV.F32 s0,#0.50000000
        0x00002df8:    ee000a81    ....    VMLA.F32 s0,s1,s2
        0x00002dfc:    eebc0ac0    ....    VCVT.U32.F32 s0,s0
        0x00002e00:    ee100a10    ....    VMOV     r0,s0
        0x00002e04:    f84d0024    M.$.    STR      r0,[sp,r4,LSL #2]
        0x00002e08:    f85d0024    ].$.    LDR      r0,[sp,r4,LSL #2]
        0x00002e0c:    f5b03f80    ...?    CMP      r0,#0x10000
        0x00002e10:    d303        ..      BCC      0x2e1a ; RGBColorSet + 74
        0x00002e12:    f64f70ff    O..p    MOV      r0,#0xffff
        0x00002e16:    f84d0024    M.$.    STR      r0,[sp,r4,LSL #2]
        0x00002e1a:    1c64        d.      ADDS     r4,r4,#1
        0x00002e1c:    2c03        .,      CMP      r4,#3
        0x00002e1e:    d3db        ..      BCC      0x2dd8 ; RGBColorSet + 8
        0x00002e20:    f04f7080    O..p    MOV      r0,#0x1000000
        0x00002e24:    9a00        ..      LDR      r2,[sp,#0]
        0x00002e26:    6bc0        .k      LDR      r0,[r0,#0x3c]
        0x00002e28:    f44f417f    O..A    MOV      r1,#0xff00
        0x00002e2c:    6c43        Cl      LDR      r3,[r0,#0x44]
        0x00002e2e:    480c        .H      LDR      r0,[pc,#48] ; [0x2e60] = 0x40030000
        0x00002e30:    4798        .G      BLX      r3
        0x00002e32:    f04f7080    O..p    MOV      r0,#0x1000000
        0x00002e36:    9a01        ..      LDR      r2,[sp,#4]
        0x00002e38:    6bc0        .k      LDR      r0,[r0,#0x3c]
        0x00002e3a:    f44f417f    O..A    MOV      r1,#0xff00
        0x00002e3e:    6c43        Cl      LDR      r3,[r0,#0x44]
        0x00002e40:    4808        .H      LDR      r0,[pc,#32] ; [0x2e64] = 0x40031000
        0x00002e42:    4798        .G      BLX      r3
        0x00002e44:    f04f7080    O..p    MOV      r0,#0x1000000
        0x00002e48:    9a02        ..      LDR      r2,[sp,#8]
        0x00002e4a:    6bc0        .k      LDR      r0,[r0,#0x3c]
        0x00002e4c:    21ff        .!      MOVS     r1,#0xff
        0x00002e4e:    6c43        Cl      LDR      r3,[r0,#0x44]
        0x00002e50:    4804        .H      LDR      r0,[pc,#16] ; [0x2e64] = 0x40031000
        0x00002e52:    4798        .G      BLX      r3
        0x00002e54:    bd3e        >.      POP      {r1-r5,pc}
    $d
        0x00002e56:    0000        ..      DCW    0
        0x00002e58:    20000860    `..     DCD    536873056
        0x00002e5c:    20000030    0..     DCD    536870960
        0x00002e60:    40030000    ...@    DCD    1073938432
        0x00002e64:    40031000    ...@    DCD    1073942528
    $t
    i.RGBDisable
    RGBDisable
        0x00002e68:    b510        ..      PUSH     {r4,lr}
        0x00002e6a:    f04f7080    O..p    MOV      r0,#0x1000000
        0x00002e6e:    6a00        .j      LDR      r0,[r0,#0x20]
        0x00002e70:    2102        .!      MOVS     r1,#2
        0x00002e72:    6b82        .k      LDR      r2,[r0,#0x38]
        0x00002e74:    4814        .H      LDR      r0,[pc,#80] ; [0x2ec8] = 0x40025000
        0x00002e76:    4790        .G      BLX      r2
        0x00002e78:    f04f7080    O..p    MOV      r0,#0x1000000
        0x00002e7c:    6a00        .j      LDR      r0,[r0,#0x20]
        0x00002e7e:    2108        .!      MOVS     r1,#8
        0x00002e80:    6b82        .k      LDR      r2,[r0,#0x38]
        0x00002e82:    4811        .H      LDR      r0,[pc,#68] ; [0x2ec8] = 0x40025000
        0x00002e84:    4790        .G      BLX      r2
        0x00002e86:    f04f7080    O..p    MOV      r0,#0x1000000
        0x00002e8a:    6a00        .j      LDR      r0,[r0,#0x20]
        0x00002e8c:    2104        .!      MOVS     r1,#4
        0x00002e8e:    6b82        .k      LDR      r2,[r0,#0x38]
        0x00002e90:    480d        .H      LDR      r0,[pc,#52] ; [0x2ec8] = 0x40025000
        0x00002e92:    4790        .G      BLX      r2
        0x00002e94:    f04f7080    O..p    MOV      r0,#0x1000000
        0x00002e98:    6bc0        .k      LDR      r0,[r0,#0x3c]
        0x00002e9a:    f64f71ff    O..q    MOV      r1,#0xffff
        0x00002e9e:    6882        .h      LDR      r2,[r0,#8]
        0x00002ea0:    480a        .H      LDR      r0,[pc,#40] ; [0x2ecc] = 0x40030000
        0x00002ea2:    4790        .G      BLX      r2
        0x00002ea4:    f04f7080    O..p    MOV      r0,#0x1000000
        0x00002ea8:    6bc0        .k      LDR      r0,[r0,#0x3c]
        0x00002eaa:    f64f71ff    O..q    MOV      r1,#0xffff
        0x00002eae:    6882        .h      LDR      r2,[r0,#8]
        0x00002eb0:    4807        .H      LDR      r0,[pc,#28] ; [0x2ed0] = 0x40031000
        0x00002eb2:    4790        .G      BLX      r2
        0x00002eb4:    f04f7080    O..p    MOV      r0,#0x1000000
        0x00002eb8:    6bc0        .k      LDR      r0,[r0,#0x3c]
        0x00002eba:    f64f71ff    O..q    MOV      r1,#0xffff
        0x00002ebe:    6882        .h      LDR      r2,[r0,#8]
        0x00002ec0:    4803        .H      LDR      r0,[pc,#12] ; [0x2ed0] = 0x40031000
        0x00002ec2:    4790        .G      BLX      r2
        0x00002ec4:    bd10        ..      POP      {r4,pc}
    $d
        0x00002ec6:    0000        ..      DCW    0
        0x00002ec8:    40025000    .P.@    DCD    1073893376
        0x00002ecc:    40030000    ...@    DCD    1073938432
        0x00002ed0:    40031000    ...@    DCD    1073942528
    $t
    i.RGBEnable
    RGBEnable
        0x00002ed4:    b510        ..      PUSH     {r4,lr}
        0x00002ed6:    f04f7080    O..p    MOV      r0,#0x1000000
        0x00002eda:    6bc0        .k      LDR      r0,[r0,#0x3c]
        0x00002edc:    f64f71ff    O..q    MOV      r1,#0xffff
        0x00002ee0:    6842        Bh      LDR      r2,[r0,#4]
        0x00002ee2:    482a        *H      LDR      r0,[pc,#168] ; [0x2f8c] = 0x40030000
        0x00002ee4:    4790        .G      BLX      r2
        0x00002ee6:    f04f7080    O..p    MOV      r0,#0x1000000
        0x00002eea:    6bc0        .k      LDR      r0,[r0,#0x3c]
        0x00002eec:    f64f71ff    O..q    MOV      r1,#0xffff
        0x00002ef0:    6842        Bh      LDR      r2,[r0,#4]
        0x00002ef2:    4827        'H      LDR      r0,[pc,#156] ; [0x2f90] = 0x40031000
        0x00002ef4:    4790        .G      BLX      r2
        0x00002ef6:    f04f7080    O..p    MOV      r0,#0x1000000
        0x00002efa:    6bc0        .k      LDR      r0,[r0,#0x3c]
        0x00002efc:    f64f71ff    O..q    MOV      r1,#0xffff
        0x00002f00:    6842        Bh      LDR      r2,[r0,#4]
        0x00002f02:    4823        #H      LDR      r0,[pc,#140] ; [0x2f90] = 0x40031000
        0x00002f04:    4790        .G      BLX      r2
        0x00002f06:    f04f7080    O..p    MOV      r0,#0x1000000
        0x00002f0a:    6a00        .j      LDR      r0,[r0,#0x20]
        0x00002f0c:    6e81        .n      LDR      r1,[r0,#0x68]
        0x00002f0e:    4821        !H      LDR      r0,[pc,#132] ; [0x2f94] = 0x50c07
        0x00002f10:    4788        .G      BLX      r1
        0x00002f12:    f04f7080    O..p    MOV      r0,#0x1000000
        0x00002f16:    6a00        .j      LDR      r0,[r0,#0x20]
        0x00002f18:    2108        .!      MOVS     r1,#8
        0x00002f1a:    6d02        .m      LDR      r2,[r0,#0x50]
        0x00002f1c:    481e        .H      LDR      r0,[pc,#120] ; [0x2f98] = 0x40025000
        0x00002f1e:    4790        .G      BLX      r2
        0x00002f20:    f04f7080    O..p    MOV      r0,#0x1000000
        0x00002f24:    6a00        .j      LDR      r0,[r0,#0x20]
        0x00002f26:    2308        .#      MOVS     r3,#8
        0x00002f28:    226e        n"      MOVS     r2,#0x6e
        0x00002f2a:    4619        .F      MOV      r1,r3
        0x00002f2c:    6944        Di      LDR      r4,[r0,#0x14]
        0x00002f2e:    481a        .H      LDR      r0,[pc,#104] ; [0x2f98] = 0x40025000
        0x00002f30:    47a0        .G      BLX      r4
        0x00002f32:    f04f7080    O..p    MOV      r0,#0x1000000
        0x00002f36:    6a00        .j      LDR      r0,[r0,#0x20]
        0x00002f38:    6e81        .n      LDR      r1,[r0,#0x68]
        0x00002f3a:    4818        .H      LDR      r0,[pc,#96] ; [0x2f9c] = 0x50807
        0x00002f3c:    4788        .G      BLX      r1
        0x00002f3e:    f04f7080    O..p    MOV      r0,#0x1000000
        0x00002f42:    6a00        .j      LDR      r0,[r0,#0x20]
        0x00002f44:    2104        .!      MOVS     r1,#4
        0x00002f46:    6d02        .m      LDR      r2,[r0,#0x50]
        0x00002f48:    4813        .H      LDR      r0,[pc,#76] ; [0x2f98] = 0x40025000
        0x00002f4a:    4790        .G      BLX      r2
        0x00002f4c:    f04f7080    O..p    MOV      r0,#0x1000000
        0x00002f50:    6a00        .j      LDR      r0,[r0,#0x20]
        0x00002f52:    2308        .#      MOVS     r3,#8
        0x00002f54:    226e        n"      MOVS     r2,#0x6e
        0x00002f56:    2104        .!      MOVS     r1,#4
        0x00002f58:    6944        Di      LDR      r4,[r0,#0x14]
        0x00002f5a:    480f        .H      LDR      r0,[pc,#60] ; [0x2f98] = 0x40025000
        0x00002f5c:    47a0        .G      BLX      r4
        0x00002f5e:    f04f7080    O..p    MOV      r0,#0x1000000
        0x00002f62:    6a00        .j      LDR      r0,[r0,#0x20]
        0x00002f64:    6e81        .n      LDR      r1,[r0,#0x68]
        0x00002f66:    480e        .H      LDR      r0,[pc,#56] ; [0x2fa0] = 0x50407
        0x00002f68:    4788        .G      BLX      r1
        0x00002f6a:    f04f7080    O..p    MOV      r0,#0x1000000
        0x00002f6e:    6a00        .j      LDR      r0,[r0,#0x20]
        0x00002f70:    2102        .!      MOVS     r1,#2
        0x00002f72:    6d02        .m      LDR      r2,[r0,#0x50]
        0x00002f74:    4808        .H      LDR      r0,[pc,#32] ; [0x2f98] = 0x40025000
        0x00002f76:    4790        .G      BLX      r2
        0x00002f78:    f04f7080    O..p    MOV      r0,#0x1000000
        0x00002f7c:    6a00        .j      LDR      r0,[r0,#0x20]
        0x00002f7e:    2308        .#      MOVS     r3,#8
        0x00002f80:    226e        n"      MOVS     r2,#0x6e
        0x00002f82:    2102        .!      MOVS     r1,#2
        0x00002f84:    6944        Di      LDR      r4,[r0,#0x14]
        0x00002f86:    4804        .H      LDR      r0,[pc,#16] ; [0x2f98] = 0x40025000
        0x00002f88:    47a0        .G      BLX      r4
        0x00002f8a:    bd10        ..      POP      {r4,pc}
    $d
        0x00002f8c:    40030000    ...@    DCD    1073938432
        0x00002f90:    40031000    ...@    DCD    1073942528
        0x00002f94:    00050c07    ....    DCD    330759
        0x00002f98:    40025000    .P.@    DCD    1073893376
        0x00002f9c:    00050807    ....    DCD    329735
        0x00002fa0:    00050407    ....    DCD    328711
    $t
    i.RGBInit
    RGBInit
        0x00002fa4:    b510        ..      PUSH     {r4,lr}
        0x00002fa6:    4604        .F      MOV      r4,r0
        0x00002fa8:    f04f7080    O..p    MOV      r0,#0x1000000
        0x00002fac:    6c40        @l      LDR      r0,[r0,#0x44]
        0x00002fae:    6981        .i      LDR      r1,[r0,#0x18]
        0x00002fb0:    4838        8H      LDR      r0,[pc,#224] ; [0x3094] = 0xf0000805
        0x00002fb2:    4788        .G      BLX      r1
        0x00002fb4:    f04f7080    O..p    MOV      r0,#0x1000000
        0x00002fb8:    6c40        @l      LDR      r0,[r0,#0x44]
        0x00002fba:    6981        .i      LDR      r1,[r0,#0x18]
        0x00002fbc:    4836        6H      LDR      r0,[pc,#216] ; [0x3098] = 0xf0000400
        0x00002fbe:    4788        .G      BLX      r1
        0x00002fc0:    f04f7080    O..p    MOV      r0,#0x1000000
        0x00002fc4:    6c40        @l      LDR      r0,[r0,#0x44]
        0x00002fc6:    6981        .i      LDR      r1,[r0,#0x18]
        0x00002fc8:    4832        2H      LDR      r0,[pc,#200] ; [0x3094] = 0xf0000805
        0x00002fca:    4788        .G      BLX      r1
        0x00002fcc:    f04f7080    O..p    MOV      r0,#0x1000000
        0x00002fd0:    6c40        @l      LDR      r0,[r0,#0x44]
        0x00002fd2:    6981        .i      LDR      r1,[r0,#0x18]
        0x00002fd4:    4830        0H      LDR      r0,[pc,#192] ; [0x3098] = 0xf0000400
        0x00002fd6:    1c40        @.      ADDS     r0,r0,#1
        0x00002fd8:    4788        .G      BLX      r1
        0x00002fda:    f04f7080    O..p    MOV      r0,#0x1000000
        0x00002fde:    6c40        @l      LDR      r0,[r0,#0x44]
        0x00002fe0:    6981        .i      LDR      r1,[r0,#0x18]
        0x00002fe2:    482c        ,H      LDR      r0,[pc,#176] ; [0x3094] = 0xf0000805
        0x00002fe4:    4788        .G      BLX      r1
        0x00002fe6:    f04f7080    O..p    MOV      r0,#0x1000000
        0x00002fea:    6c40        @l      LDR      r0,[r0,#0x44]
        0x00002fec:    6981        .i      LDR      r1,[r0,#0x18]
        0x00002fee:    482a        *H      LDR      r0,[pc,#168] ; [0x3098] = 0xf0000400
        0x00002ff0:    1c40        @.      ADDS     r0,r0,#1
        0x00002ff2:    4788        .G      BLX      r1
        0x00002ff4:    2004        .       MOVS     r0,#4
        0x00002ff6:    4929        )I      LDR      r1,[pc,#164] ; [0x309c] = 0x40031000
        0x00002ff8:    6008        .`      STR      r0,[r1,#0]
        0x00002ffa:    200a        .       MOVS     r0,#0xa
        0x00002ffc:    6048        H`      STR      r0,[r1,#4]
        0x00002ffe:    f64f70ff    O..p    MOV      r0,#0xffff
        0x00003002:    6288        .b      STR      r0,[r1,#0x28]
        0x00003004:    2004        .       MOVS     r0,#4
        0x00003006:    6008        .`      STR      r0,[r1,#0]
        0x00003008:    200a        .       MOVS     r0,#0xa
        0x0000300a:    6088        .`      STR      r0,[r1,#8]
        0x0000300c:    f64f70ff    O..p    MOV      r0,#0xffff
        0x00003010:    62c8        .b      STR      r0,[r1,#0x2c]
        0x00003012:    2004        .       MOVS     r0,#4
        0x00003014:    4922        "I      LDR      r1,[pc,#136] ; [0x30a0] = 0x40030000
        0x00003016:    6008        .`      STR      r0,[r1,#0]
        0x00003018:    200a        .       MOVS     r0,#0xa
        0x0000301a:    6088        .`      STR      r0,[r1,#8]
        0x0000301c:    f64f70ff    O..p    MOV      r0,#0xffff
        0x00003020:    62c8        .b      STR      r0,[r1,#0x2c]
        0x00003022:    4608        .F      MOV      r0,r1
        0x00003024:    68c0        .h      LDR      r0,[r0,#0xc]
        0x00003026:    f4404080    @..@    ORR      r0,r0,#0x4000
        0x0000302a:    60c8        .`      STR      r0,[r1,#0xc]
        0x0000302c:    481b        .H      LDR      r0,[pc,#108] ; [0x309c] = 0x40031000
        0x0000302e:    68c0        .h      LDR      r0,[r0,#0xc]
        0x00003030:    f0400040    @.@.    ORR      r0,r0,#0x40
        0x00003034:    4919        .I      LDR      r1,[pc,#100] ; [0x309c] = 0x40031000
        0x00003036:    60c8        .`      STR      r0,[r1,#0xc]
        0x00003038:    4608        .F      MOV      r0,r1
        0x0000303a:    68c0        .h      LDR      r0,[r0,#0xc]
        0x0000303c:    f4404080    @..@    ORR      r0,r0,#0x4000
        0x00003040:    60c8        .`      STR      r0,[r1,#0xc]
        0x00003042:    b10c        ..      CBZ      r4,0x3048 ; RGBInit + 164
        0x00003044:    f7ffff46    ..F.    BL       RGBEnable ; 0x2ed4
        0x00003048:    f04f7080    O..p    MOV      r0,#0x1000000
        0x0000304c:    6c40        @l      LDR      r0,[r0,#0x44]
        0x0000304e:    6981        .i      LDR      r1,[r0,#0x18]
        0x00003050:    4814        .H      LDR      r0,[pc,#80] ; [0x30a4] = 0xf0005c05
        0x00003052:    4788        .G      BLX      r1
        0x00003054:    f04f7080    O..p    MOV      r0,#0x1000000
        0x00003058:    6bc0        .k      LDR      r0,[r0,#0x3c]
        0x0000305a:    4913        .I      LDR      r1,[pc,#76] ; [0x30a8] = 0x4002200
        0x0000305c:    68c2        .h      LDR      r2,[r0,#0xc]
        0x0000305e:    4813        .H      LDR      r0,[pc,#76] ; [0x30ac] = 0x4004f000
        0x00003060:    4790        .G      BLX      r2
        0x00003062:    f04f7080    O..p    MOV      r0,#0x1000000
        0x00003066:    6bc0        .k      LDR      r0,[r0,#0x3c]
        0x00003068:    f04f32ff    O..2    MOV      r2,#0xffffffff
        0x0000306c:    4613        .F      MOV      r3,r2
        0x0000306e:    6dc1        .m      LDR      r1,[r0,#0x5c]
        0x00003070:    480e        .H      LDR      r0,[pc,#56] ; [0x30ac] = 0x4004f000
        0x00003072:    4788        .G      BLX      r1
        0x00003074:    f04f7080    O..p    MOV      r0,#0x1000000
        0x00003078:    6c80        .l      LDR      r0,[r0,#0x48]
        0x0000307a:    6801        .h      LDR      r1,[r0,#0]
        0x0000307c:    2079        y       MOVS     r0,#0x79
        0x0000307e:    4788        .G      BLX      r1
        0x00003080:    f04f7080    O..p    MOV      r0,#0x1000000
        0x00003084:    6bc0        .k      LDR      r0,[r0,#0x3c]
        0x00003086:    f44f7180    O..q    MOV      r1,#0x100
        0x0000308a:    6cc2        .l      LDR      r2,[r0,#0x4c]
        0x0000308c:    4807        .H      LDR      r0,[pc,#28] ; [0x30ac] = 0x4004f000
        0x0000308e:    4790        .G      BLX      r2
        0x00003090:    bd10        ..      POP      {r4,pc}
    $d
        0x00003092:    0000        ..      DCW    0
        0x00003094:    f0000805    ....    DCD    4026533893
        0x00003098:    f0000400    ....    DCD    4026532864
        0x0000309c:    40031000    ...@    DCD    1073942528
        0x000030a0:    40030000    ...@    DCD    1073938432
        0x000030a4:    f0005c05    .\..    DCD    4026555397
        0x000030a8:    04002200    ."..    DCD    67117568
        0x000030ac:    4004f000    ...@    DCD    1074065408
    $t
    i.RGBIntensitySet
    RGBIntensitySet
        0x000030b0:    b510        ..      PUSH     {r4,lr}
        0x000030b2:    ed2d8b02    -...    VPUSH    {d8}
        0x000030b6:    eeb08a40    ..@.    VMOV.F32 s16,s0
        0x000030ba:    4804        .H      LDR      r0,[pc,#16] ; [0x30cc] = 0x20000030
        0x000030bc:    ed808a00    ....    VSTR     s16,[r0,#0]
        0x000030c0:    4803        .H      LDR      r0,[pc,#12] ; [0x30d0] = 0x20000860
        0x000030c2:    f7fffe85    ....    BL       RGBColorSet ; 0x2dd0
        0x000030c6:    ecbd8b02    ....    VPOP     {d8}
        0x000030ca:    bd10        ..      POP      {r4,pc}
    $d
        0x000030cc:    20000030    0..     DCD    536870960
        0x000030d0:    20000860    `..     DCD    536873056
    $t
    i.RGBSet
    RGBSet
        0x000030d4:    b510        ..      PUSH     {r4,lr}
        0x000030d6:    ed2d8b02    -...    VPUSH    {d8}
        0x000030da:    4604        .F      MOV      r4,r0
        0x000030dc:    eeb08a40    ..@.    VMOV.F32 s16,s0
        0x000030e0:    4620         F      MOV      r0,r4
        0x000030e2:    f7fffe75    ..u.    BL       RGBColorSet ; 0x2dd0
        0x000030e6:    eeb00a48    ..H.    VMOV.F32 s0,s16
        0x000030ea:    f7ffffe1    ....    BL       RGBIntensitySet ; 0x30b0
        0x000030ee:    ecbd8b02    ....    VPOP     {d8}
        0x000030f2:    bd10        ..      POP      {r4,pc}
    i.SysCtlAltClkConfig
    SysCtlAltClkConfig
        0x000030f4:    4901        .I      LDR      r1,[pc,#4] ; [0x30fc] = 0x400fe138
        0x000030f6:    6008        .`      STR      r0,[r1,#0]
        0x000030f8:    4770        pG      BX       lr
    $d
        0x000030fa:    0000        ..      DCW    0
        0x000030fc:    400fe138    8..@    DCD    1074782520
    $t
    i.SysCtlClockFreqSet
    SysCtlClockFreqSet
        0x00003100:    e92d07f0    -...    PUSH     {r4-r10}
        0x00003104:    4da6        .M      LDR      r5,[pc,#664] ; [0x33a0] = 0x400fe000
        0x00003106:    4602        .F      MOV      r2,r0
        0x00003108:    6828        (h      LDR      r0,[r5,#0]
        0x0000310a:    4ba6        .K      LDR      r3,[pc,#664] ; [0x33a4] = 0x70ff0000
        0x0000310c:    4018        .@      ANDS     r0,r0,r3
        0x0000310e:    f1a05380    ...S    SUB      r3,r0,#0x10000000
        0x00003112:    f5b323a0    ...#    SUBS     r3,r3,#0x50000
        0x00003116:    d04a        J.      BEQ      0x31ae ; SysCtlClockFreqSet + 174
        0x00003118:    f0020838    ..8.    AND      r8,r2,#0x38
        0x0000311c:    4fa2        .O      LDR      r7,[pc,#648] ; [0x33a8] = 0xf42400
        0x0000311e:    f3c21c84    ....    UBFX     r12,r2,#6,#5
        0x00003122:    f1b80f10    ....    CMP      r8,#0x10
        0x00003126:    d024        $.      BEQ      0x3172 ; SysCtlClockFreqSet + 114
        0x00003128:    f1b80f30    ..0.    CMP      r8,#0x30
        0x0000312c:    bf04        ..      ITT      EQ
        0x0000312e:    f2475030    G.0P    MOVEQ    r0,#0x7530
        0x00003132:    f44f1300    O...    MOVEQ    r3,#0x200000
        0x00003136:    d00c        ..      BEQ      0x3152 ; SysCtlClockFreqSet + 82
        0x00003138:    2038        8       MOVS     r0,#0x38
        0x0000313a:    4390        .C      BICS     r0,r0,r2
        0x0000313c:    bf04        ..      ITT      EQ
        0x0000313e:    f44f4000    O..@    MOVEQ    r0,#0x8000
        0x00003142:    01c3        ..      LSLEQ    r3,r0,#7
        0x00003144:    d005        ..      BEQ      0x3152 ; SysCtlClockFreqSet + 82
        0x00003146:    f0120f38    ..8.    TST      r2,#0x38
        0x0000314a:    bf1c        ..      ITT      NE
        0x0000314c:    2000        .       MOVNE    r0,#0
        0x0000314e:    4603        .F      MOVNE    r3,r0
        0x00003150:    d014        ..      BEQ      0x317c ; SysCtlClockFreqSet + 124
        0x00003152:    4c96        .L      LDR      r4,[pc,#600] ; [0x33ac] = 0x5850
        0x00003154:    f4125f60    ..`_    TST      r2,#0x3800
        0x00003158:    f04f0600    O...    MOV      r6,#0
        0x0000315c:    bf18        ..      IT       NE
        0x0000315e:    2200        ."      MOVNE    r2,#0
        0x00003160:    d01f        ..      BEQ      0x31a2 ; SysCtlClockFreqSet + 162
        0x00003162:    f8548032    T.2.    LDR      r8,[r4,r2,LSL #3]
        0x00003166:    45b8        .E      CMP      r8,r7
        0x00003168:    d37d        }.      BCC      0x3266 ; SysCtlClockFreqSet + 358
        0x0000316a:    eb0402c2    ....    ADD      r2,r4,r2,LSL #3
        0x0000316e:    6852        Rh      LDR      r2,[r2,#4]
        0x00003170:    e0d8        ..      B        0x3324 ; SysCtlClockFreqSet + 548
        0x00003172:    4638        8F      MOV      r0,r7
        0x00003174:    2300        .#      MOVS     r3,#0
        0x00003176:    f04f0c15    O...    MOV      r12,#0x15
        0x0000317a:    e7ea        ..      B        0x3152 ; SysCtlClockFreqSet + 82
        0x0000317c:    f1ac0009    ....    SUB      r0,r12,#9
        0x00003180:    2812        .(      CMP      r0,#0x12
        0x00003182:    d214        ..      BCS      0x31ae ; SysCtlClockFreqSet + 174
        0x00003184:    488a        .H      LDR      r0,[pc,#552] ; [0x33b0] = 0x56c4
        0x00003186:    6fec        .o      LDR      r4,[r5,#0x7c]
        0x00003188:    f04f734c    O.Ls    MOV      r3,#0x3300000
        0x0000318c:    f850002c    P.,.    LDR      r0,[r0,r12,LSL #2]
        0x00003190:    f024041c    $...    BIC      r4,r4,#0x1c
        0x00003194:    f1bc0f07    ....    CMP      r12,#7
        0x00003198:    bfa8        ..      IT       GE
        0x0000319a:    f0440410    D...    ORRGE    r4,r4,#0x10
        0x0000319e:    67ec        .g      STR      r4,[r5,#0x7c]
        0x000031a0:    e7d7        ..      B        0x3152 ; SysCtlClockFreqSet + 82
        0x000031a2:    f0120f38    ..8.    TST      r2,#0x38
        0x000031a6:    bf18        ..      IT       NE
        0x000031a8:    f1b80f10    ....    CMPNE    r8,#0x10
        0x000031ac:    d003        ..      BEQ      0x31b6 ; SysCtlClockFreqSet + 182
        0x000031ae:    e8bd07f0    ....    POP      {r4-r10}
        0x000031b2:    2000        .       MOVS     r0,#0
        0x000031b4:    4770        pG      BX       lr
        0x000031b6:    f3c26802    ...h    UBFX     r8,r2,#24,#3
        0x000031ba:    4f7e        ~O      LDR      r7,[pc,#504] ; [0x33b4] = 0x17d7840
        0x000031bc:    2200        ."      MOVS     r2,#0
        0x000031be:    f8549032    T.2.    LDR      r9,[r4,r2,LSL #3]
        0x000031c2:    45b9        .E      CMP      r9,r7
        0x000031c4:    d303        ..      BCC      0x31ce ; SysCtlClockFreqSet + 206
        0x000031c6:    eb0402c2    ....    ADD      r2,r4,r2,LSL #3
        0x000031ca:    6852        Rh      LDR      r2,[r2,#4]
        0x000031cc:    e003        ..      B        0x31d6 ; SysCtlClockFreqSet + 214
        0x000031ce:    1c52        R.      ADDS     r2,r2,#1
        0x000031d0:    2a06        .*      CMP      r2,#6
        0x000031d2:    d3f4        ..      BCC      0x31be ; SysCtlClockFreqSet + 190
        0x000031d4:    4632        2F      MOV      r2,r6
        0x000031d6:    f8c520c0    ...     STR      r2,[r5,#0xc0]
        0x000031da:    f8d520b0    ...     LDR      r2,[r5,#0xb0]
        0x000031de:    4f76        vO      LDR      r7,[pc,#472] ; [0x33b8] = 0xe00ffc00
        0x000031e0:    403a        :@      ANDS     r2,r2,r7
        0x000031e2:    f0424200    B..B    ORR      r2,r2,#0x80000000
        0x000031e6:    f8c520b0    ...     STR      r2,[r5,#0xb0]
        0x000031ea:    f1ac0209    ....    SUB      r2,r12,#9
        0x000031ee:    f8dfc1cc    ....    LDR      r12,[pc,#460] ; [0x33bc] = 0x5730
        0x000031f2:    eb0807c8    ....    ADD      r7,r8,r8,LSL #3
        0x000031f6:    eb0c1c07    ....    ADD      r12,r12,r7,LSL #4
        0x000031fa:    eb0c07c2    ....    ADD      r7,r12,r2,LSL #3
        0x000031fe:    f8d79004    ....    LDR      r9,[r7,#4]
        0x00003202:    f8d57164    ..dq    LDR      r7,[r5,#0x164]
        0x00003206:    45b9        .E      CMP      r9,r7
        0x00003208:    d109        ..      BNE      0x321e ; SysCtlClockFreqSet + 286
        0x0000320a:    f85c7032    \.2p    LDR      r7,[r12,r2,LSL #3]
        0x0000320e:    f8d5a160    ..`.    LDR      r10,[r5,#0x160]
        0x00003212:    f4470700    G...    ORR      r7,r7,#0x800000
        0x00003216:    4557        WE      CMP      r7,r10
        0x00003218:    bf08        ..      IT       EQ
        0x0000321a:    2700        .'      MOVEQ    r7,#0
        0x0000321c:    d012        ..      BEQ      0x3244 ; SysCtlClockFreqSet + 324
        0x0000321e:    f8d5a0b0    ....    LDR      r10,[r5,#0xb0]
        0x00003222:    2701        .'      MOVS     r7,#1
        0x00003224:    ea4a0a03    J...    ORR      r10,r10,r3
        0x00003228:    f8c5a0b0    ....    STR      r10,[r5,#0xb0]
        0x0000322c:    f8c59164    ..d.    STR      r9,[r5,#0x164]
        0x00003230:    f85c2032    \.2     LDR      r2,[r12,r2,LSL #3]
        0x00003234:    f8d5c160    ..`.    LDR      r12,[r5,#0x160]
        0x00003238:    f40c0c00    ....    AND      r12,r12,#0x800000
        0x0000323c:    ea42020c    B...    ORR      r2,r2,r12
        0x00003240:    f8c52160    ..`!    STR      r2,[r5,#0x160]
        0x00003244:    4a5e        ^J      LDR      r2,[pc,#376] ; [0x33c0] = 0x56bc
        0x00003246:    f1a10c01    ....    SUB      r12,r1,#1
        0x0000324a:    f8522028    R.(     LDR      r2,[r2,r8,LSL #2]
        0x0000324e:    4462        bD      ADD      r2,r2,r12
        0x00003250:    fbb2fcf1    ....    UDIV     r12,r2,r1
        0x00003254:    f8d51160    ..`.    LDR      r1,[r5,#0x160]
        0x00003258:    f8d52160    ..`!    LDR      r2,[r5,#0x160]
        0x0000325c:    f3c12189    ...!    UBFX     r1,r1,#10,#10
        0x00003260:    f3c20909    ....    UBFX     r9,r2,#0,#10
        0x00003264:    e000        ..      B        0x3268 ; SysCtlClockFreqSet + 360
        0x00003266:    e058        X.      B        0x331a ; SysCtlClockFreqSet + 538
        0x00003268:    f8d52164    ..d!    LDR      r2,[r5,#0x164]
        0x0000326c:    f3c22204    ..."    UBFX     r2,r2,#8,#5
        0x00003270:    f1020801    ....    ADD      r8,r2,#1
        0x00003274:    f8d52164    ..d!    LDR      r2,[r5,#0x164]
        0x00003278:    f002021f    ....    AND      r2,r2,#0x1f
        0x0000327c:    1c52        R.      ADDS     r2,r2,#1
        0x0000327e:    fbb0f0f2    ....    UDIV     r0,r0,r2
        0x00003282:    094a        J.      LSRS     r2,r1,#5
        0x00003284:    f1c20a00    ....    RSB      r10,r2,#0
        0x00003288:    fb00f909    ....    MUL      r9,r0,r9
        0x0000328c:    4342        BC      MULS     r2,r0,r2
        0x0000328e:    eb01114a    ..J.    ADD      r1,r1,r10,LSL #5
        0x00003292:    eb091252    ..R.    ADD      r2,r9,r2,LSR #5
        0x00003296:    4348        HC      MULS     r0,r1,r0
        0x00003298:    eb022090    ...     ADD      r0,r2,r0,LSR #10
        0x0000329c:    fbb0f0f8    ....    UDIV     r0,r0,r8
        0x000032a0:    fbb0f1fc    ....    UDIV     r1,r0,r12
        0x000032a4:    4608        .F      MOV      r0,r1
        0x000032a6:    2200        ."      MOVS     r2,#0
        0x000032a8:    f8548032    T.2.    LDR      r8,[r4,r2,LSL #3]
        0x000032ac:    4580        .E      CMP      r8,r0
        0x000032ae:    d303        ..      BCC      0x32b8 ; SysCtlClockFreqSet + 440
        0x000032b0:    eb0400c2    ....    ADD      r0,r4,r2,LSL #3
        0x000032b4:    6846        Fh      LDR      r6,[r0,#4]
        0x000032b6:    e002        ..      B        0x32be ; SysCtlClockFreqSet + 446
        0x000032b8:    1c52        R.      ADDS     r2,r2,#1
        0x000032ba:    2a06        .*      CMP      r2,#6
        0x000032bc:    d3f4        ..      BCC      0x32a8 ; SysCtlClockFreqSet + 424
        0x000032be:    f8c560c0    ...`    STR      r6,[r5,#0xc0]
        0x000032c2:    f8d50160    ..`.    LDR      r0,[r5,#0x160]
        0x000032c6:    f4100f00    ....    TST      r0,#0x800000
        0x000032ca:    d007        ..      BEQ      0x32dc ; SysCtlClockFreqSet + 476
        0x000032cc:    b167        g.      CBZ      r7,0x32e8 ; SysCtlClockFreqSet + 488
        0x000032ce:    f8d500b0    ....    LDR      r0,[r5,#0xb0]
        0x000032d2:    f0404080    @..@    ORR      r0,r0,#0x40000000
        0x000032d6:    f8c500b0    ....    STR      r0,[r5,#0xb0]
        0x000032da:    e005        ..      B        0x32e8 ; SysCtlClockFreqSet + 488
        0x000032dc:    f8d50160    ..`.    LDR      r0,[r5,#0x160]
        0x000032e0:    f4400000    @...    ORR      r0,r0,#0x800000
        0x000032e4:    f8c50160    ..`.    STR      r0,[r5,#0x160]
        0x000032e8:    f44f4000    O..@    MOV      r0,#0x8000
        0x000032ec:    f8d52168    ..h!    LDR      r2,[r5,#0x168]
        0x000032f0:    f0120f01    ....    TST      r2,#1
        0x000032f4:    d102        ..      BNE      0x32fc ; SysCtlClockFreqSet + 508
        0x000032f6:    1e40        @.      SUBS     r0,r0,#1
        0x000032f8:    2800        .(      CMP      r0,#0
        0x000032fa:    dcf7        ..      BGT      0x32ec ; SysCtlClockFreqSet + 492
        0x000032fc:    2800        .(      CMP      r0,#0
        0x000032fe:    bf08        ..      IT       EQ
        0x00003300:    2100        .!      MOVEQ    r1,#0
        0x00003302:    d049        I.      BEQ      0x3398 ; SysCtlClockFreqSet + 664
        0x00003304:    f8d500b0    ....    LDR      r0,[r5,#0xb0]
        0x00003308:    f1ac0201    ....    SUB      r2,r12,#1
        0x0000330c:    431a        .C      ORRS     r2,r2,r3
        0x0000330e:    4310        .C      ORRS     r0,r0,r2
        0x00003310:    f0404010    @..@    ORR      r0,r0,#0x90000000
        0x00003314:    f8c500b0    ....    STR      r0,[r5,#0xb0]
        0x00003318:    e03e        >.      B        0x3398 ; SysCtlClockFreqSet + 664
        0x0000331a:    1c52        R.      ADDS     r2,r2,#1
        0x0000331c:    2a06        .*      CMP      r2,#6
        0x0000331e:    f4ffaf20    .. .    BCC      0x3162 ; SysCtlClockFreqSet + 98
        0x00003322:    4632        2F      MOV      r2,r6
        0x00003324:    f8c520c0    ...     STR      r2,[r5,#0xc0]
        0x00003328:    f8d52160    ..`!    LDR      r2,[r5,#0x160]
        0x0000332c:    f4220200    "...    BIC      r2,r2,#0x800000
        0x00003330:    f8c52160    ..`!    STR      r2,[r5,#0x160]
        0x00003334:    f8d520b0    ...     LDR      r2,[r5,#0xb0]
        0x00003338:    f8dfc088    ....    LDR      r12,[pc,#136] ; [0x33c4] = 0xef0003ff
        0x0000333c:    ea02020c    ....    AND      r2,r2,r12
        0x00003340:    f0424200    B..B    ORR      r2,r2,#0x80000000
        0x00003344:    f8c520b0    ...     STR      r2,[r5,#0xb0]
        0x00003348:    2900        .)      CMP      r1,#0
        0x0000334a:    bf08        ..      IT       EQ
        0x0000334c:    f04f0c00    O...    MOVEQ    r12,#0
        0x00003350:    d00a        ..      BEQ      0x3368 ; SysCtlClockFreqSet + 616
        0x00003352:    fbb0fcf1    ....    UDIV     r12,r0,r1
        0x00003356:    f1bc0f00    ....    CMP      r12,#0
        0x0000335a:    bf18        ..      IT       NE
        0x0000335c:    f1ac0c01    ....    SUBNE    r12,r12,#1
        0x00003360:    f10c0101    ....    ADD      r1,r12,#1
        0x00003364:    fbb0f1f1    ....    UDIV     r1,r0,r1
        0x00003368:    4608        .F      MOV      r0,r1
        0x0000336a:    2200        ."      MOVS     r2,#0
        0x0000336c:    f8547032    T.2p    LDR      r7,[r4,r2,LSL #3]
        0x00003370:    4287        .B      CMP      r7,r0
        0x00003372:    d303        ..      BCC      0x337c ; SysCtlClockFreqSet + 636
        0x00003374:    eb0400c2    ....    ADD      r0,r4,r2,LSL #3
        0x00003378:    6846        Fh      LDR      r6,[r0,#4]
        0x0000337a:    e002        ..      B        0x3382 ; SysCtlClockFreqSet + 642
        0x0000337c:    1c52        R.      ADDS     r2,r2,#1
        0x0000337e:    2a06        .*      CMP      r2,#6
        0x00003380:    d3f4        ..      BCC      0x336c ; SysCtlClockFreqSet + 620
        0x00003382:    f8c560c0    ...`    STR      r6,[r5,#0xc0]
        0x00003386:    f8d500b0    ....    LDR      r0,[r5,#0xb0]
        0x0000338a:    ea43228c    C.."    ORR      r2,r3,r12,LSL #10
        0x0000338e:    4310        .C      ORRS     r0,r0,r2
        0x00003390:    f0404000    @..@    ORR      r0,r0,#0x80000000
        0x00003394:    f8c500b0    ....    STR      r0,[r5,#0xb0]
        0x00003398:    e8bd07f0    ....    POP      {r4-r10}
        0x0000339c:    4608        .F      MOV      r0,r1
        0x0000339e:    4770        pG      BX       lr
    $d
        0x000033a0:    400fe000    ...@    DCD    1074782208
        0x000033a4:    70ff0000    ...p    DCD    1895759872
        0x000033a8:    00f42400    .$..    DCD    16000000
        0x000033ac:    00005850    PX..    DCD    22608
        0x000033b0:    000056c4    .V..    DCD    22212
        0x000033b4:    017d7840    @x}.    DCD    25000000
        0x000033b8:    e00ffc00    ....    DCD    3759143936
        0x000033bc:    00005730    0W..    DCD    22320
        0x000033c0:    000056bc    .V..    DCD    22204
        0x000033c4:    ef0003ff    ....    DCD    4009755647
    $t
    i.SysCtlClockGet
    SysCtlClockGet
        0x000033c8:    b470        p.      PUSH     {r4-r6}
        0x000033ca:    4d4e        NM      LDR      r5,[pc,#312] ; [0x3504] = 0x400fe000
        0x000033cc:    6e2b        +n      LDR      r3,[r5,#0x60]
        0x000033ce:    6f29        )o      LDR      r1,[r5,#0x70]
        0x000033d0:    f0114f00    ...O    TST      r1,#0x80000000
        0x000033d4:    bf14        ..      ITE      NE
        0x000033d6:    f0010070    ..p.    ANDNE    r0,r1,#0x70
        0x000033da:    f0030030    ..0.    ANDEQ    r0,r3,#0x30
        0x000033de:    2820         (      CMP      r0,#0x20
        0x000033e0:    bf08        ..      IT       EQ
        0x000033e2:    4849        IH      LDREQ    r0,[pc,#292] ; [0x3508] = 0x3d0900
        0x000033e4:    d018        ..      BEQ      0x3418 ; SysCtlClockGet + 80
        0x000033e6:    dc05        ..      BGT      0x33f4 ; SysCtlClockGet + 44
        0x000033e8:    b188        ..      CBZ      r0,0x340e ; SysCtlClockGet + 70
        0x000033ea:    2810        .(      CMP      r0,#0x10
        0x000033ec:    bf08        ..      IT       EQ
        0x000033ee:    4847        GH      LDREQ    r0,[pc,#284] ; [0x350c] = 0xf42400
        0x000033f0:    d012        ..      BEQ      0x3418 ; SysCtlClockGet + 80
        0x000033f2:    e009        ..      B        0x3408 ; SysCtlClockGet + 64
        0x000033f4:    2830        0(      CMP      r0,#0x30
        0x000033f6:    bf08        ..      IT       EQ
        0x000033f8:    f2475030    G.0P    MOVEQ    r0,#0x7530
        0x000033fc:    d00c        ..      BEQ      0x3418 ; SysCtlClockGet + 80
        0x000033fe:    2870        p(      CMP      r0,#0x70
        0x00003400:    bf08        ..      IT       EQ
        0x00003402:    f44f4000    O..@    MOVEQ    r0,#0x8000
        0x00003406:    d007        ..      BEQ      0x3418 ; SysCtlClockGet + 80
        0x00003408:    bc70        p.      POP      {r4-r6}
        0x0000340a:    2000        .       MOVS     r0,#0
        0x0000340c:    4770        pG      BX       lr
        0x0000340e:    207c        |       MOVS     r0,#0x7c
        0x00003410:    4a3f        ?J      LDR      r2,[pc,#252] ; [0x3510] = 0x56c4
        0x00003412:    ea001013    ....    AND      r0,r0,r3,LSR #4
        0x00003416:    5810        .X      LDR      r0,[r2,r0]
        0x00003418:    f04f32ff    O..2    MOV      r2,#0xffffffff
        0x0000341c:    f0114f00    ...O    TST      r1,#0x80000000
        0x00003420:    d002        ..      BEQ      0x3428 ; SysCtlClockGet + 96
        0x00003422:    f4116f00    ...o    TST      r1,#0x800
        0x00003426:    d006        ..      BEQ      0x3436 ; SysCtlClockGet + 110
        0x00003428:    f0014c00    ...L    AND      r12,r1,#0x80000000
        0x0000342c:    f4036400    ...d    AND      r4,r3,#0x800
        0x00003430:    ea5c0c04    \...    ORRS     r12,r12,r4
        0x00003434:    d13b        ;.      BNE      0x34ae ; SysCtlClockGet + 230
        0x00003436:    f8d5c160    ..`.    LDR      r12,[r5,#0x160]
        0x0000343a:    f8d54164    ..dA    LDR      r4,[r5,#0x164]
        0x0000343e:    f004061f    ....    AND      r6,r4,#0x1f
        0x00003442:    1c76        v.      ADDS     r6,r6,#1
        0x00003444:    f3c42404    ...$    UBFX     r4,r4,#8,#5
        0x00003448:    1c64        d.      ADDS     r4,r4,#1
        0x0000344a:    fb16f404    ....    SMULBB   r4,r6,r4
        0x0000344e:    0064        d.      LSLS     r4,r4,#1
        0x00003450:    fbb0f0f4    ....    UDIV     r0,r0,r4
        0x00003454:    f3cc0409    ....    UBFX     r4,r12,#0,#10
        0x00003458:    4344        DC      MULS     r4,r0,r4
        0x0000345a:    f3cc2c89    ...,    UBFX     r12,r12,#10,#10
        0x0000345e:    fb00f00c    ....    MUL      r0,r0,r12
        0x00003462:    f8d5c010    ....    LDR      r12,[r5,#0x10]
        0x00003466:    eb042090    ...     ADD      r0,r4,r0,LSR #10
        0x0000346a:    f4430380    C...    ORR      r3,r3,#0x400000
        0x0000346e:    f40c4c70    ..pL    AND      r12,r12,#0xf000
        0x00003472:    f5bc4f80    ...O    CMP      r12,#0x4000
        0x00003476:    bf08        ..      IT       EQ
        0x00003478:    4a26        &J      LDREQ    r2,[pc,#152] ; [0x3514] = 0x2625a00
        0x0000347a:    d018        ..      BEQ      0x34ae ; SysCtlClockGet + 230
        0x0000347c:    dc0e        ..      BGT      0x349c ; SysCtlClockGet + 212
        0x0000347e:    f5bc5f80    ..._    CMP      r12,#0x1000
        0x00003482:    bf08        ..      IT       EQ
        0x00003484:    4a24        $J      LDREQ    r2,[pc,#144] ; [0x3518] = 0x4c4b400
        0x00003486:    d012        ..      BEQ      0x34ae ; SysCtlClockGet + 230
        0x00003488:    f5bc5f00    ..._    CMP      r12,#0x2000
        0x0000348c:    bf08        ..      IT       EQ
        0x0000348e:    4a23        #J      LDREQ    r2,[pc,#140] ; [0x351c] = 0x3f940aa
        0x00003490:    d00d        ..      BEQ      0x34ae ; SysCtlClockGet + 230
        0x00003492:    f5bc5f40    ..@_    CMP      r12,#0x3000
        0x00003496:    bf08        ..      IT       EQ
        0x00003498:    4a21        !J      LDREQ    r2,[pc,#132] ; [0x3520] = 0x2faf080
        0x0000349a:    e008        ..      B        0x34ae ; SysCtlClockGet + 230
        0x0000349c:    f5bc4fe0    ...O    CMP      r12,#0x7000
        0x000034a0:    bf08        ..      IT       EQ
        0x000034a2:    4a20         J      LDREQ    r2,[pc,#128] ; [0x3524] = 0x17d7840
        0x000034a4:    d003        ..      BEQ      0x34ae ; SysCtlClockGet + 230
        0x000034a6:    f5bc4f10    ...O    CMP      r12,#0x9000
        0x000034aa:    bf08        ..      IT       EQ
        0x000034ac:    4a1e        .J      LDREQ    r2,[pc,#120] ; [0x3528] = 0x1312d00
        0x000034ae:    f4130f80    ....    TST      r3,#0x400000
        0x000034b2:    d021        !.      BEQ      0x34f8 ; SysCtlClockGet + 304
        0x000034b4:    f0114f00    ...O    TST      r1,#0x80000000
        0x000034b8:    d019        ..      BEQ      0x34ee ; SysCtlClockGet + 294
        0x000034ba:    f0114f80    ...O    TST      r1,#0x40000000
        0x000034be:    d009        ..      BEQ      0x34d4 ; SysCtlClockGet + 268
        0x000034c0:    f4116f00    ...o    TST      r1,#0x800
        0x000034c4:    d00c        ..      BEQ      0x34e0 ; SysCtlClockGet + 280
        0x000034c6:    f0014c00    ...L    AND      r12,r1,#0x80000000
        0x000034ca:    f4036300    ...c    AND      r3,r3,#0x800
        0x000034ce:    ea5c0303    \...    ORRS     r3,r12,r3
        0x000034d2:    d005        ..      BEQ      0x34e0 ; SysCtlClockGet + 280
        0x000034d4:    f3c151c5    ...Q    UBFX     r1,r1,#23,#6
        0x000034d8:    1c49        I.      ADDS     r1,r1,#1
        0x000034da:    fbb0f0f1    ....    UDIV     r0,r0,r1
        0x000034de:    e00b        ..      B        0x34f8 ; SysCtlClockGet + 304
        0x000034e0:    0040        @.      LSLS     r0,r0,#1
        0x000034e2:    f3c15186    ...Q    UBFX     r1,r1,#22,#7
        0x000034e6:    1c49        I.      ADDS     r1,r1,#1
        0x000034e8:    fbb0f0f1    ....    UDIV     r0,r0,r1
        0x000034ec:    e004        ..      B        0x34f8 ; SysCtlClockGet + 304
        0x000034ee:    f3c351c3    ...Q    UBFX     r1,r3,#23,#4
        0x000034f2:    1c49        I.      ADDS     r1,r1,#1
        0x000034f4:    fbb0f0f1    ....    UDIV     r0,r0,r1
        0x000034f8:    4282        .B      CMP      r2,r0
        0x000034fa:    bf38        8.      IT       CC
        0x000034fc:    4610        .F      MOVCC    r0,r2
        0x000034fe:    bc70        p.      POP      {r4-r6}
        0x00003500:    4770        pG      BX       lr
    $d
        0x00003502:    0000        ..      DCW    0
        0x00003504:    400fe000    ...@    DCD    1074782208
        0x00003508:    003d0900    ..=.    DCD    4000000
        0x0000350c:    00f42400    .$..    DCD    16000000
        0x00003510:    000056c4    .V..    DCD    22212
        0x00003514:    02625a00    .Zb.    DCD    40000000
        0x00003518:    04c4b400    ....    DCD    80000000
        0x0000351c:    03f940aa    .@..    DCD    66666666
        0x00003520:    02faf080    ....    DCD    50000000
        0x00003524:    017d7840    @x}.    DCD    25000000
        0x00003528:    01312d00    .-1.    DCD    20000000
    $t
    i.SysCtlClockOutConfig
    SysCtlClockOutConfig
        0x0000352c:    1e49        I.      SUBS     r1,r1,#1
        0x0000352e:    b2c9        ..      UXTB     r1,r1
        0x00003530:    4308        .C      ORRS     r0,r0,r1
        0x00003532:    4901        .I      LDR      r1,[pc,#4] ; [0x3538] = 0x400fe148
        0x00003534:    6008        .`      STR      r0,[r1,#0]
        0x00003536:    4770        pG      BX       lr
    $d
        0x00003538:    400fe148    H..@    DCD    1074782536
    $t
    i.SysCtlClockSet
    SysCtlClockSet
        0x0000353c:    4b43        CK      LDR      r3,[pc,#268] ; [0x364c] = 0x400fe000
        0x0000353e:    b430        0.      PUSH     {r4,r5}
        0x00003540:    6e19        .n      LDR      r1,[r3,#0x60]
        0x00003542:    6f1a        .o      LDR      r2,[r3,#0x70]
        0x00003544:    f4210180    !...    BIC      r1,r1,#0x400000
        0x00003548:    f4416100    A..a    ORR      r1,r1,#0x800
        0x0000354c:    f4426400    B..d    ORR      r4,r2,#0x800
        0x00003550:    6619        .f      STR      r1,[r3,#0x60]
        0x00003552:    671c        .g      STR      r4,[r3,#0x70]
        0x00003554:    ea210200    !...    BIC      r2,r1,r0
        0x00003558:    f0120f01    ....    TST      r2,#1
        0x0000355c:    d014        ..      BEQ      0x3588 ; SysCtlClockSet + 76
        0x0000355e:    f0600201    `...    ORN      r2,r0,#1
        0x00003562:    4011        .@      ANDS     r1,r1,r2
        0x00003564:    159a        ..      ASRS     r2,r3,#22
        0x00003566:    659a        .e      STR      r2,[r3,#0x58]
        0x00003568:    6619        .f      STR      r1,[r3,#0x60]
        0x0000356a:    f8d3c050    ..P.    LDR      r12,[r3,#0x50]
        0x0000356e:    02d2        ..      LSLS     r2,r2,#11
        0x00003570:    f41c7f80    ....    TST      r12,#0x100
        0x00003574:    d108        ..      BNE      0x3588 ; SysCtlClockSet + 76
        0x00003576:    1e52        R.      SUBS     r2,r2,#1
        0x00003578:    bf04        ..      ITT      EQ
        0x0000357a:    bc30        0.      POPEQ    {r4,r5}
        0x0000357c:    4770        pG      BXEQ     lr
        0x0000357e:    f8d3c050    ..P.    LDR      r12,[r3,#0x50]
        0x00003582:    f41c7f80    ....    TST      r12,#0x100
        0x00003586:    d0f6        ..      BEQ      0x3576 ; SysCtlClockSet + 58
        0x00003588:    f42161fe    !..a    BIC      r1,r1,#0x7f0
        0x0000358c:    f40062fe    ...b    AND      r2,r0,#0x7f0
        0x00003590:    4311        .C      ORRS     r1,r1,r2
        0x00003592:    f8dfc0bc    ....    LDR      r12,[pc,#188] ; [0x3650] = 0x80000030
        0x00003596:    f0240270    $.p.    BIC      r2,r4,#0x70
        0x0000359a:    f0224200    "..B    BIC      r2,r2,#0x80000000
        0x0000359e:    ea000c0c    ....    AND      r12,r0,r12
        0x000035a2:    ea4c0202    L...    ORR      r2,r12,r2
        0x000035a6:    f0000c08    ....    AND      r12,r0,#8
        0x000035aa:    ea4202cc    B...    ORR      r2,r2,r12,LSL #3
        0x000035ae:    6619        .f      STR      r1,[r3,#0x60]
        0x000035b0:    671a        .g      STR      r2,[r3,#0x70]
        0x000035b2:    f4005c00    ...\    AND      r12,r0,#0x2000
        0x000035b6:    f4215100    !..Q    BIC      r1,r1,#0x2000
        0x000035ba:    f4225200    "..R    BIC      r2,r2,#0x2000
        0x000035be:    ea4c0101    L...    ORR      r1,r12,r1
        0x000035c2:    ea4c0202    L...    ORR      r2,r12,r2
        0x000035c6:    f04f0c40    O.@.    MOV      r12,#0x40
        0x000035ca:    f8c3c058    ..X.    STR      r12,[r3,#0x58]
        0x000035ce:    f0124f00    ...O    TST      r2,#0x80000000
        0x000035d2:    bf08        ..      IT       EQ
        0x000035d4:    6619        .f      STREQ    r1,[r3,#0x60]
        0x000035d6:    671a        .g      STR      r2,[r3,#0x70]
        0x000035d8:    bf18        ..      IT       NE
        0x000035da:    6619        .f      STRNE    r1,[r3,#0x60]
        0x000035dc:    f0210101    !...    BIC      r1,r1,#1
        0x000035e0:    f8dfc070    ..p.    LDR      r12,[pc,#112] ; [0x3654] = 0x7c00001
        0x000035e4:    f02161f8    !..a    BIC      r1,r1,#0x7c00000
        0x000035e8:    ea000c0c    ....    AND      r12,r0,r12
        0x000035ec:    ea4c0101    L...    ORR      r1,r12,r1
        0x000035f0:    f02252fc    "..R    BIC      r2,r2,#0x1f800000
        0x000035f4:    f0005cfc    ...\    AND      r12,r0,#0x1f800000
        0x000035f8:    ea4c0202    L...    ORR      r2,r12,r2
        0x000035fc:    f0104f80    ...O    TST      r0,#0x40000000
        0x00003600:    bf08        ..      IT       EQ
        0x00003602:    f0224280    "..B    BICEQ    r2,r2,#0x40000000
        0x00003606:    d009        ..      BEQ      0x361c ; SysCtlClockSet + 224
        0x00003608:    f8dfc04c    ..L.    LDR      r12,[pc,#76] ; [0x3658] = 0x40400000
        0x0000360c:    f4220280    "...    BIC      r2,r2,#0x400000
        0x00003610:    ea000c0c    ....    AND      r12,r0,r12
        0x00003614:    f4410180    A...    ORR      r1,r1,#0x400000
        0x00003618:    ea4c0202    L...    ORR      r2,r12,r2
        0x0000361c:    f4106f00    ...o    TST      r0,#0x800
        0x00003620:    bf08        ..      IT       EQ
        0x00003622:    f44f4000    O..@    MOVEQ    r0,#0x8000
        0x00003626:    d10a        ..      BNE      0x363e ; SysCtlClockSet + 258
        0x00003628:    f8d3c168    ..h.    LDR      r12,[r3,#0x168]
        0x0000362c:    f01c0f01    ....    TST      r12,#1
        0x00003630:    d101        ..      BNE      0x3636 ; SysCtlClockSet + 250
        0x00003632:    1e40        @.      SUBS     r0,r0,#1
        0x00003634:    d1f8        ..      BNE      0x3628 ; SysCtlClockSet + 236
        0x00003636:    f4216100    !..a    BIC      r1,r1,#0x800
        0x0000363a:    f4226200    "..b    BIC      r2,r2,#0x800
        0x0000363e:    6619        .f      STR      r1,[r3,#0x60]
        0x00003640:    671a        .g      STR      r2,[r3,#0x70]
        0x00003642:    bc30        0.      POP      {r4,r5}
        0x00003644:    2010        .       MOVS     r0,#0x10
        0x00003646:    f7fcbe29    ..).    B        SysCtlDelay ; 0x29c
    $d
        0x0000364a:    0000        ..      DCW    0
        0x0000364c:    400fe000    ...@    DCD    1074782208
        0x00003650:    80000030    0...    DCD    2147483696
        0x00003654:    07c00001    ....    DCD    130023425
        0x00003658:    40400000    ..@@    DCD    1077936128
    $t
    i.SysCtlDeepSleep
    SysCtlDeepSleep
        0x0000365c:    b510        ..      PUSH     {r4,lr}
        0x0000365e:    4c06        .L      LDR      r4,[pc,#24] ; [0x3678] = 0xe000ed10
        0x00003660:    6820         h      LDR      r0,[r4,#0]
        0x00003662:    f0400004    @...    ORR      r0,r0,#4
        0x00003666:    6020         `      STR      r0,[r4,#0]
        0x00003668:    f7fcfe27    ..'.    BL       CPUwfi ; 0x2ba
        0x0000366c:    6820         h      LDR      r0,[r4,#0]
        0x0000366e:    f0200004     ...    BIC      r0,r0,#4
        0x00003672:    6020         `      STR      r0,[r4,#0]
        0x00003674:    bd10        ..      POP      {r4,pc}
    $d
        0x00003676:    0000        ..      DCW    0
        0x00003678:    e000ed10    ....    DCD    3758157072
    $t
    i.SysCtlDeepSleepClockConfigSet
    SysCtlDeepSleepClockConfigSet
        0x0000367c:    4b18        .K      LDR      r3,[pc,#96] ; [0x36e0] = 0x400fe000
        0x0000367e:    681a        .h      LDR      r2,[r3,#0]
        0x00003680:    f8dfc060    ..`.    LDR      r12,[pc,#96] ; [0x36e4] = 0x70ff0000
        0x00003684:    ea02020c    ....    AND      r2,r2,r12
        0x00003688:    f1a25c80    ...\    SUB      r12,r2,#0x10000000
        0x0000368c:    f5bc2ca0    ...,    SUBS     r12,r12,#0x50000
        0x00003690:    d108        ..      BNE      0x36a4 ; SysCtlDeepSleepClockConfigSet + 40
        0x00003692:    4a15        .J      LDR      r2,[pc,#84] ; [0x36e8] = 0xff800000
        0x00003694:    f02151fc    !..Q    BIC      r1,r1,#0x1f800000
        0x00003698:    eb0250c0    ...P    ADD      r0,r2,r0,LSL #23
        0x0000369c:    4308        .C      ORRS     r0,r0,r1
        0x0000369e:    f8c30144    ..D.    STR      r0,[r3,#0x144]
        0x000036a2:    4770        pG      BX       lr
        0x000036a4:    1e40        @.      SUBS     r0,r0,#1
        0x000036a6:    f0110270    ..p.    ANDS     r2,r1,#0x70
        0x000036aa:    bf08        ..      IT       EQ
        0x000036ac:    f4401040    @.@.    ORREQ    r0,r0,#0x300000
        0x000036b0:    d008        ..      BEQ      0x36c4 ; SysCtlDeepSleepClockConfigSet + 72
        0x000036b2:    2a30        0*      CMP      r2,#0x30
        0x000036b4:    bf08        ..      IT       EQ
        0x000036b6:    f4401000    @...    ORREQ    r0,r0,#0x200000
        0x000036ba:    d003        ..      BEQ      0x36c4 ; SysCtlDeepSleepClockConfigSet + 72
        0x000036bc:    2a70        p*      CMP      r2,#0x70
        0x000036be:    bf08        ..      IT       EQ
        0x000036c0:    f4400080    @...    ORREQ    r0,r0,#0x400000
        0x000036c4:    f0110f02    ....    TST      r1,#2
        0x000036c8:    bf18        ..      IT       NE
        0x000036ca:    f0404000    @..@    ORRNE    r0,r0,#0x80000000
        0x000036ce:    f0114f80    ...O    TST      r1,#0x40000000
        0x000036d2:    bf18        ..      IT       NE
        0x000036d4:    f0404080    @..@    ORRNE    r0,r0,#0x40000000
        0x000036d8:    f8c30144    ..D.    STR      r0,[r3,#0x144]
        0x000036dc:    4770        pG      BX       lr
    $d
        0x000036de:    0000        ..      DCW    0
        0x000036e0:    400fe000    ...@    DCD    1074782208
        0x000036e4:    70ff0000    ...p    DCD    1895759872
        0x000036e8:    ff800000    ....    DCD    4286578688
    $t
    i.SysCtlDeepSleepClockSet
    SysCtlDeepSleepClockSet
        0x000036ec:    4901        .I      LDR      r1,[pc,#4] ; [0x36f4] = 0x400fe144
        0x000036ee:    6008        .`      STR      r0,[r1,#0]
        0x000036f0:    4770        pG      BX       lr
    $d
        0x000036f2:    0000        ..      DCW    0
        0x000036f4:    400fe144    D..@    DCD    1074782532
    $t
    i.SysCtlDeepSleepPowerSet
    SysCtlDeepSleepPowerSet
        0x000036f8:    4901        .I      LDR      r1,[pc,#4] ; [0x3700] = 0x400fe18c
        0x000036fa:    6008        .`      STR      r0,[r1,#0]
        0x000036fc:    4770        pG      BX       lr
    $d
        0x000036fe:    0000        ..      DCW    0
        0x00003700:    400fe18c    ...@    DCD    1074782604
    $t
    i.SysCtlFlashSectorSizeGet
    SysCtlFlashSectorSizeGet
        0x00003704:    480a        .H      LDR      r0,[pc,#40] ; [0x3730] = 0x400fe000
        0x00003706:    6800        .h      LDR      r0,[r0,#0]
        0x00003708:    490a        .I      LDR      r1,[pc,#40] ; [0x3734] = 0x70ff0000
        0x0000370a:    4008        .@      ANDS     r0,r0,r1
        0x0000370c:    f1a05180    ...Q    SUB      r1,r0,#0x10000000
        0x00003710:    f5b12120    .. !    SUBS     r1,r1,#0xa0000
        0x00003714:    bf1c        ..      ITT      NE
        0x00003716:    f44f6080    O..`    MOVNE    r0,#0x400
        0x0000371a:    4770        pG      BXNE     lr
        0x0000371c:    4806        .H      LDR      r0,[pc,#24] ; [0x3738] = 0x400fdfc0
        0x0000371e:    6800        .h      LDR      r0,[r0,#0]
        0x00003720:    f3c04002    ...@    UBFX     r0,r0,#16,#3
        0x00003724:    300a        .0      ADDS     r0,r0,#0xa
        0x00003726:    2101        .!      MOVS     r1,#1
        0x00003728:    fa01f000    ....    LSL      r0,r1,r0
        0x0000372c:    4770        pG      BX       lr
    $d
        0x0000372e:    0000        ..      DCW    0
        0x00003730:    400fe000    ...@    DCD    1074782208
        0x00003734:    70ff0000    ...p    DCD    1895759872
        0x00003738:    400fdfc0    ...@    DCD    1074782144
    $t
    i.SysCtlFlashSizeGet
    SysCtlFlashSizeGet
        0x0000373c:    480a        .H      LDR      r0,[pc,#40] ; [0x3768] = 0x400fe000
        0x0000373e:    6801        .h      LDR      r1,[r0,#0]
        0x00003740:    4a0a        .J      LDR      r2,[pc,#40] ; [0x376c] = 0x70ff0000
        0x00003742:    4011        .@      ANDS     r1,r1,r2
        0x00003744:    f1a15280    ...R    SUB      r2,r1,#0x10000000
        0x00003748:    f5b222a0    ..."    SUBS     r2,r2,#0x50000
        0x0000374c:    d105        ..      BNE      0x375a ; SysCtlFlashSizeGet + 30
        0x0000374e:    6880        .h      LDR      r0,[r0,#8]
        0x00003750:    0400        ..      LSLS     r0,r0,#16
        0x00003752:    0940        @.      LSRS     r0,r0,#5
        0x00003754:    f5006000    ...`    ADD      r0,r0,#0x800
        0x00003758:    4770        pG      BX       lr
        0x0000375a:    4805        .H      LDR      r0,[pc,#20] ; [0x3770] = 0x400fdfc0
        0x0000375c:    6800        .h      LDR      r0,[r0,#0]
        0x0000375e:    b280        ..      UXTH     r0,r0
        0x00003760:    1c40        @.      ADDS     r0,r0,#1
        0x00003762:    02c0        ..      LSLS     r0,r0,#11
        0x00003764:    4770        pG      BX       lr
    $d
        0x00003766:    0000        ..      DCW    0
        0x00003768:    400fe000    ...@    DCD    1074782208
        0x0000376c:    70ff0000    ...p    DCD    1895759872
        0x00003770:    400fdfc0    ...@    DCD    1074782144
    $t
    i.SysCtlGPIOAHBDisable
    SysCtlGPIOAHBDisable
        0x00003774:    4905        .I      LDR      r1,[pc,#20] ; [0x378c] = 0x400fe000
        0x00003776:    6eca        .n      LDR      r2,[r1,#0x6c]
        0x00003778:    f000000f    ....    AND      r0,r0,#0xf
        0x0000377c:    2301        .#      MOVS     r3,#1
        0x0000377e:    fa03f000    ....    LSL      r0,r3,r0
        0x00003782:    ea220000    "...    BIC      r0,r2,r0
        0x00003786:    66c8        .f      STR      r0,[r1,#0x6c]
        0x00003788:    4770        pG      BX       lr
    $d
        0x0000378a:    0000        ..      DCW    0
        0x0000378c:    400fe000    ...@    DCD    1074782208
    $t
    i.SysCtlGPIOAHBEnable
    SysCtlGPIOAHBEnable
        0x00003790:    4904        .I      LDR      r1,[pc,#16] ; [0x37a4] = 0x400fe000
        0x00003792:    6eca        .n      LDR      r2,[r1,#0x6c]
        0x00003794:    f000000f    ....    AND      r0,r0,#0xf
        0x00003798:    2301        .#      MOVS     r3,#1
        0x0000379a:    fa03f000    ....    LSL      r0,r3,r0
        0x0000379e:    4310        .C      ORRS     r0,r0,r2
        0x000037a0:    66c8        .f      STR      r0,[r1,#0x6c]
        0x000037a2:    4770        pG      BX       lr
    $d
        0x000037a4:    400fe000    ...@    DCD    1074782208
    $t
    i.SysCtlIntClear
    SysCtlIntClear
        0x000037a8:    4901        .I      LDR      r1,[pc,#4] ; [0x37b0] = 0x400fe000
        0x000037aa:    6588        .e      STR      r0,[r1,#0x58]
        0x000037ac:    4770        pG      BX       lr
    $d
        0x000037ae:    0000        ..      DCW    0
        0x000037b0:    400fe000    ...@    DCD    1074782208
    $t
    i.SysCtlIntDisable
    SysCtlIntDisable
        0x000037b4:    4902        .I      LDR      r1,[pc,#8] ; [0x37c0] = 0x400fe000
        0x000037b6:    6d4a        Jm      LDR      r2,[r1,#0x54]
        0x000037b8:    ea220000    "...    BIC      r0,r2,r0
        0x000037bc:    6548        He      STR      r0,[r1,#0x54]
        0x000037be:    4770        pG      BX       lr
    $d
        0x000037c0:    400fe000    ...@    DCD    1074782208
    $t
    i.SysCtlIntEnable
    SysCtlIntEnable
        0x000037c4:    4902        .I      LDR      r1,[pc,#8] ; [0x37d0] = 0x400fe000
        0x000037c6:    6d4a        Jm      LDR      r2,[r1,#0x54]
        0x000037c8:    4310        .C      ORRS     r0,r0,r2
        0x000037ca:    6548        He      STR      r0,[r1,#0x54]
        0x000037cc:    4770        pG      BX       lr
    $d
        0x000037ce:    0000        ..      DCW    0
        0x000037d0:    400fe000    ...@    DCD    1074782208
    $t
    i.SysCtlIntRegister
    SysCtlIntRegister
        0x000037d4:    b510        ..      PUSH     {r4,lr}
        0x000037d6:    4601        .F      MOV      r1,r0
        0x000037d8:    202c        ,       MOVS     r0,#0x2c
        0x000037da:    f7fefec5    ....    BL       IntRegister ; 0x2568
        0x000037de:    e8bd4010    ...@    POP      {r4,lr}
        0x000037e2:    202c        ,       MOVS     r0,#0x2c
        0x000037e4:    f7febda4    ....    B        IntEnable ; 0x2330
    i.SysCtlIntStatus
    SysCtlIntStatus
        0x000037e8:    4902        .I      LDR      r1,[pc,#8] ; [0x37f4] = 0x400fe000
        0x000037ea:    2800        .(      CMP      r0,#0
        0x000037ec:    bf14        ..      ITE      NE
        0x000037ee:    6d88        .m      LDRNE    r0,[r1,#0x58]
        0x000037f0:    6d08        .m      LDREQ    r0,[r1,#0x50]
        0x000037f2:    4770        pG      BX       lr
    $d
        0x000037f4:    400fe000    ...@    DCD    1074782208
    $t
    i.SysCtlIntUnregister
    SysCtlIntUnregister
        0x000037f8:    b510        ..      PUSH     {r4,lr}
        0x000037fa:    202c        ,       MOVS     r0,#0x2c
        0x000037fc:    f7fefd66    ..f.    BL       IntDisable ; 0x22cc
        0x00003800:    e8bd4010    ...@    POP      {r4,lr}
        0x00003804:    202c        ,       MOVS     r0,#0x2c
        0x00003806:    f7febecf    ....    B        IntUnregister ; 0x25a8
        0x0000380a:    0000        ..      MOVS     r0,r0
    i.SysCtlLDODeepSleepGet
    SysCtlLDODeepSleepGet
        0x0000380c:    4801        .H      LDR      r0,[pc,#4] ; [0x3814] = 0x400fe1bc
        0x0000380e:    6800        .h      LDR      r0,[r0,#0]
        0x00003810:    4770        pG      BX       lr
    $d
        0x00003812:    0000        ..      DCW    0
        0x00003814:    400fe1bc    ...@    DCD    1074782652
    $t
    i.SysCtlLDODeepSleepSet
    SysCtlLDODeepSleepSet
        0x00003818:    4901        .I      LDR      r1,[pc,#4] ; [0x3820] = 0x400fe1bc
        0x0000381a:    6008        .`      STR      r0,[r1,#0]
        0x0000381c:    4770        pG      BX       lr
    $d
        0x0000381e:    0000        ..      DCW    0
        0x00003820:    400fe1bc    ...@    DCD    1074782652
    $t
    i.SysCtlLDOSleepGet
    SysCtlLDOSleepGet
        0x00003824:    4801        .H      LDR      r0,[pc,#4] ; [0x382c] = 0x400fe1b4
        0x00003826:    6800        .h      LDR      r0,[r0,#0]
        0x00003828:    4770        pG      BX       lr
    $d
        0x0000382a:    0000        ..      DCW    0
        0x0000382c:    400fe1b4    ...@    DCD    1074782644
    $t
    i.SysCtlLDOSleepSet
    SysCtlLDOSleepSet
        0x00003830:    4901        .I      LDR      r1,[pc,#4] ; [0x3838] = 0x400fe1b4
        0x00003832:    6008        .`      STR      r0,[r1,#0]
        0x00003834:    4770        pG      BX       lr
    $d
        0x00003836:    0000        ..      DCW    0
        0x00003838:    400fe1b4    ...@    DCD    1074782644
    $t
    i.SysCtlMOSCConfigSet
    SysCtlMOSCConfigSet
        0x0000383c:    4901        .I      LDR      r1,[pc,#4] ; [0x3844] = 0x400fe000
        0x0000383e:    67c8        .g      STR      r0,[r1,#0x7c]
        0x00003840:    4770        pG      BX       lr
    $d
        0x00003842:    0000        ..      DCW    0
        0x00003844:    400fe000    ...@    DCD    1074782208
    $t
    i.SysCtlNMIClear
    SysCtlNMIClear
        0x00003848:    4902        .I      LDR      r1,[pc,#8] ; [0x3854] = 0x400fe000
        0x0000384a:    6e4a        Jn      LDR      r2,[r1,#0x64]
        0x0000384c:    ea220000    "...    BIC      r0,r2,r0
        0x00003850:    6648        Hf      STR      r0,[r1,#0x64]
        0x00003852:    4770        pG      BX       lr
    $d
        0x00003854:    400fe000    ...@    DCD    1074782208
    $t
    i.SysCtlNMIStatus
    SysCtlNMIStatus
        0x00003858:    4801        .H      LDR      r0,[pc,#4] ; [0x3860] = 0x400fe000
        0x0000385a:    6e40        @n      LDR      r0,[r0,#0x64]
        0x0000385c:    4770        pG      BX       lr
    $d
        0x0000385e:    0000        ..      DCW    0
        0x00003860:    400fe000    ...@    DCD    1074782208
    $t
    i.SysCtlPIOSCCalibrate
    SysCtlPIOSCCalibrate
        0x00003864:    4910        .I      LDR      r1,[pc,#64] ; [0x38a8] = 0x80000100
        0x00003866:    4208        .B      TST      r0,r1
        0x00003868:    4910        .I      LDR      r1,[pc,#64] ; [0x38ac] = 0x400fe000
        0x0000386a:    d008        ..      BEQ      0x387e ; SysCtlPIOSCCalibrate + 26
        0x0000386c:    f0004200    ...B    AND      r2,r0,#0x80000000
        0x00003870:    f8c12150    ..P!    STR      r2,[r1,#0x150]
        0x00003874:    4602        .F      MOV      r2,r0
        0x00003876:    f36f12de    o...    BFC      r2,#7,#24
        0x0000387a:    f8c12150    ..P!    STR      r2,[r1,#0x150]
        0x0000387e:    f8c10150    ..P.    STR      r0,[r1,#0x150]
        0x00003882:    f4107f00    ....    TST      r0,#0x200
        0x00003886:    d00d        ..      BEQ      0x38a4 ; SysCtlPIOSCCalibrate + 64
        0x00003888:    f8d10154    ..T.    LDR      r0,[r1,#0x154]
        0x0000388c:    f4107f40    ..@.    TST      r0,#0x300
        0x00003890:    d0fa        ..      BEQ      0x3888 ; SysCtlPIOSCCalibrate + 36
        0x00003892:    f8d10154    ..T.    LDR      r0,[r1,#0x154]
        0x00003896:    f4007040    ..@p    AND      r0,r0,#0x300
        0x0000389a:    f5b07f80    ....    CMP      r0,#0x100
        0x0000389e:    bf1c        ..      ITT      NE
        0x000038a0:    2000        .       MOVNE    r0,#0
        0x000038a2:    4770        pG      BXNE     lr
        0x000038a4:    2001        .       MOVS     r0,#1
        0x000038a6:    4770        pG      BX       lr
    $d
        0x000038a8:    80000100    ....    DCD    2147483904
        0x000038ac:    400fe000    ...@    DCD    1074782208
    $t
    i.SysCtlPWMClockGet
    SysCtlPWMClockGet
        0x000038b0:    4804        .H      LDR      r0,[pc,#16] ; [0x38c4] = 0x400fe000
        0x000038b2:    6e01        .n      LDR      r1,[r0,#0x60]
        0x000038b4:    f4111f80    ....    TST      r1,#0x100000
        0x000038b8:    bf0e        ..      ITEE     EQ
        0x000038ba:    2000        .       MOVEQ    r0,#0
        0x000038bc:    6e00        .n      LDRNE    r0,[r0,#0x60]
        0x000038be:    f40010f0    ....    ANDNE    r0,r0,#0x1e0000
        0x000038c2:    4770        pG      BX       lr
    $d
        0x000038c4:    400fe000    ...@    DCD    1074782208
    $t
    i.SysCtlPWMClockSet
    SysCtlPWMClockSet
        0x000038c8:    4903        .I      LDR      r1,[pc,#12] ; [0x38d8] = 0x400fe000
        0x000038ca:    6e0a        .n      LDR      r2,[r1,#0x60]
        0x000038cc:    f42212f0    "...    BIC      r2,r2,#0x1e0000
        0x000038d0:    4310        .C      ORRS     r0,r0,r2
        0x000038d2:    6608        .f      STR      r0,[r1,#0x60]
        0x000038d4:    4770        pG      BX       lr
    $d
        0x000038d6:    0000        ..      DCW    0
        0x000038d8:    400fe000    ...@    DCD    1074782208
    $t
    i.SysCtlPeripheralClockGating
    SysCtlPeripheralClockGating
        0x000038dc:    490e        .I      LDR      r1,[pc,#56] ; [0x3918] = 0x400fe000
        0x000038de:    680a        .h      LDR      r2,[r1,#0]
        0x000038e0:    4b0e        .K      LDR      r3,[pc,#56] ; [0x391c] = 0x70ff0000
        0x000038e2:    401a        .@      ANDS     r2,r2,r3
        0x000038e4:    f1a25380    ...S    SUB      r3,r2,#0x10000000
        0x000038e8:    f5b323a0    ...#    SUBS     r3,r3,#0x50000
        0x000038ec:    d108        ..      BNE      0x3900 ; SysCtlPeripheralClockGating + 36
        0x000038ee:    2800        .(      CMP      r0,#0
        0x000038f0:    6e08        .n      LDR      r0,[r1,#0x60]
        0x000038f2:    bf14        ..      ITE      NE
        0x000038f4:    f0406000    @..`    ORRNE    r0,r0,#0x8000000
        0x000038f8:    f0206000     ..`    BICEQ    r0,r0,#0x8000000
        0x000038fc:    6608        .f      STR      r0,[r1,#0x60]
        0x000038fe:    4770        pG      BX       lr
        0x00003900:    2800        .(      CMP      r0,#0
        0x00003902:    f8d100b0    ....    LDR      r0,[r1,#0xb0]
        0x00003906:    bf0c        ..      ITE      EQ
        0x00003908:    f0205000     ..P    BICEQ    r0,r0,#0x20000000
        0x0000390c:    f0405000    @..P    ORRNE    r0,r0,#0x20000000
        0x00003910:    f8c100b0    ....    STR      r0,[r1,#0xb0]
        0x00003914:    4770        pG      BX       lr
    $d
        0x00003916:    0000        ..      DCW    0
        0x00003918:    400fe000    ...@    DCD    1074782208
        0x0000391c:    70ff0000    ...p    DCD    1895759872
    $t
    i.SysCtlPeripheralDeepSleepDisable
    SysCtlPeripheralDeepSleepDisable
        0x00003920:    f3c02307    ...#    UBFX     r3,r0,#8,#8
        0x00003924:    4907        .I      LDR      r1,[pc,#28] ; [0x3944] = 0x400fe800
        0x00003926:    b2c0        ..      UXTB     r0,r0
        0x00003928:    4419        .D      ADD      r1,r1,r3
        0x0000392a:    f0014370    ..pC    AND      r3,r1,#0xf0000000
        0x0000392e:    f3c10113    ....    UBFX     r1,r1,#0,#20
        0x00003932:    ea431141    C.A.    ORR      r1,r3,r1,LSL #5
        0x00003936:    ea410080    A...    ORR      r0,r1,r0,LSL #2
        0x0000393a:    f0407000    @..p    ORR      r0,r0,#0x2000000
        0x0000393e:    2200        ."      MOVS     r2,#0
        0x00003940:    6002        .`      STR      r2,[r0,#0]
        0x00003942:    4770        pG      BX       lr
    $d
        0x00003944:    400fe800    ...@    DCD    1074784256
    $t
    i.SysCtlPeripheralDeepSleepEnable
    SysCtlPeripheralDeepSleepEnable
        0x00003948:    f3c02307    ...#    UBFX     r3,r0,#8,#8
        0x0000394c:    4907        .I      LDR      r1,[pc,#28] ; [0x396c] = 0x400fe800
        0x0000394e:    b2c0        ..      UXTB     r0,r0
        0x00003950:    4419        .D      ADD      r1,r1,r3
        0x00003952:    f0014370    ..pC    AND      r3,r1,#0xf0000000
        0x00003956:    f3c10113    ....    UBFX     r1,r1,#0,#20
        0x0000395a:    ea431141    C.A.    ORR      r1,r3,r1,LSL #5
        0x0000395e:    ea410080    A...    ORR      r0,r1,r0,LSL #2
        0x00003962:    f0407000    @..p    ORR      r0,r0,#0x2000000
        0x00003966:    2201        ."      MOVS     r2,#1
        0x00003968:    6002        .`      STR      r2,[r0,#0]
        0x0000396a:    4770        pG      BX       lr
    $d
        0x0000396c:    400fe800    ...@    DCD    1074784256
    $t
    i.SysCtlPeripheralDisable
    SysCtlPeripheralDisable
        0x00003970:    f3c02307    ...#    UBFX     r3,r0,#8,#8
        0x00003974:    4907        .I      LDR      r1,[pc,#28] ; [0x3994] = 0x400fe600
        0x00003976:    b2c0        ..      UXTB     r0,r0
        0x00003978:    4419        .D      ADD      r1,r1,r3
        0x0000397a:    f0014370    ..pC    AND      r3,r1,#0xf0000000
        0x0000397e:    f3c10113    ....    UBFX     r1,r1,#0,#20
        0x00003982:    ea431141    C.A.    ORR      r1,r3,r1,LSL #5
        0x00003986:    ea410080    A...    ORR      r0,r1,r0,LSL #2
        0x0000398a:    f0407000    @..p    ORR      r0,r0,#0x2000000
        0x0000398e:    2200        ."      MOVS     r2,#0
        0x00003990:    6002        .`      STR      r2,[r0,#0]
        0x00003992:    4770        pG      BX       lr
    $d
        0x00003994:    400fe600    ...@    DCD    1074783744
    $t
    i.SysCtlPeripheralEnable
    SysCtlPeripheralEnable
        0x00003998:    f3c02307    ...#    UBFX     r3,r0,#8,#8
        0x0000399c:    4907        .I      LDR      r1,[pc,#28] ; [0x39bc] = 0x400fe600
        0x0000399e:    b2c0        ..      UXTB     r0,r0
        0x000039a0:    4419        .D      ADD      r1,r1,r3
        0x000039a2:    f0014370    ..pC    AND      r3,r1,#0xf0000000
        0x000039a6:    f3c10113    ....    UBFX     r1,r1,#0,#20
        0x000039aa:    ea431141    C.A.    ORR      r1,r3,r1,LSL #5
        0x000039ae:    ea410080    A...    ORR      r0,r1,r0,LSL #2
        0x000039b2:    f0407000    @..p    ORR      r0,r0,#0x2000000
        0x000039b6:    2201        ."      MOVS     r2,#1
        0x000039b8:    6002        .`      STR      r2,[r0,#0]
        0x000039ba:    4770        pG      BX       lr
    $d
        0x000039bc:    400fe600    ...@    DCD    1074783744
    $t
    i.SysCtlPeripheralPowerOff
    SysCtlPeripheralPowerOff
        0x000039c0:    f3c02307    ...#    UBFX     r3,r0,#8,#8
        0x000039c4:    4907        .I      LDR      r1,[pc,#28] ; [0x39e4] = 0x400fe900
        0x000039c6:    b2c0        ..      UXTB     r0,r0
        0x000039c8:    4419        .D      ADD      r1,r1,r3
        0x000039ca:    f0014370    ..pC    AND      r3,r1,#0xf0000000
        0x000039ce:    f3c10113    ....    UBFX     r1,r1,#0,#20
        0x000039d2:    ea431141    C.A.    ORR      r1,r3,r1,LSL #5
        0x000039d6:    ea410080    A...    ORR      r0,r1,r0,LSL #2
        0x000039da:    f0407000    @..p    ORR      r0,r0,#0x2000000
        0x000039de:    2200        ."      MOVS     r2,#0
        0x000039e0:    6002        .`      STR      r2,[r0,#0]
        0x000039e2:    4770        pG      BX       lr
    $d
        0x000039e4:    400fe900    ...@    DCD    1074784512
    $t
    i.SysCtlPeripheralPowerOn
    SysCtlPeripheralPowerOn
        0x000039e8:    f3c02307    ...#    UBFX     r3,r0,#8,#8
        0x000039ec:    4907        .I      LDR      r1,[pc,#28] ; [0x3a0c] = 0x400fe900
        0x000039ee:    b2c0        ..      UXTB     r0,r0
        0x000039f0:    4419        .D      ADD      r1,r1,r3
        0x000039f2:    f0014370    ..pC    AND      r3,r1,#0xf0000000
        0x000039f6:    f3c10113    ....    UBFX     r1,r1,#0,#20
        0x000039fa:    ea431141    C.A.    ORR      r1,r3,r1,LSL #5
        0x000039fe:    ea410080    A...    ORR      r0,r1,r0,LSL #2
        0x00003a02:    f0407000    @..p    ORR      r0,r0,#0x2000000
        0x00003a06:    2201        ."      MOVS     r2,#1
        0x00003a08:    6002        .`      STR      r2,[r0,#0]
        0x00003a0a:    4770        pG      BX       lr
    $d
        0x00003a0c:    400fe900    ...@    DCD    1074784512
    $t
    i.SysCtlPeripheralPresent
    SysCtlPeripheralPresent
        0x00003a10:    f3c02207    ..."    UBFX     r2,r0,#8,#8
        0x00003a14:    4908        .I      LDR      r1,[pc,#32] ; [0x3a38] = 0x400fe300
        0x00003a16:    b2c0        ..      UXTB     r0,r0
        0x00003a18:    4411        .D      ADD      r1,r1,r2
        0x00003a1a:    f0014270    ..pB    AND      r2,r1,#0xf0000000
        0x00003a1e:    f3c10113    ....    UBFX     r1,r1,#0,#20
        0x00003a22:    ea421141    B.A.    ORR      r1,r2,r1,LSL #5
        0x00003a26:    ea410080    A...    ORR      r0,r1,r0,LSL #2
        0x00003a2a:    f0407000    @..p    ORR      r0,r0,#0x2000000
        0x00003a2e:    6800        .h      LDR      r0,[r0,#0]
        0x00003a30:    2800        .(      CMP      r0,#0
        0x00003a32:    bf18        ..      IT       NE
        0x00003a34:    2001        .       MOVNE    r0,#1
        0x00003a36:    4770        pG      BX       lr
    $d
        0x00003a38:    400fe300    ...@    DCD    1074782976
    $t
    i.SysCtlPeripheralReady
    SysCtlPeripheralReady
        0x00003a3c:    f3c02207    ..."    UBFX     r2,r0,#8,#8
        0x00003a40:    4908        .I      LDR      r1,[pc,#32] ; [0x3a64] = 0x400fea00
        0x00003a42:    b2c0        ..      UXTB     r0,r0
        0x00003a44:    4411        .D      ADD      r1,r1,r2
        0x00003a46:    f0014270    ..pB    AND      r2,r1,#0xf0000000
        0x00003a4a:    f3c10113    ....    UBFX     r1,r1,#0,#20
        0x00003a4e:    ea421141    B.A.    ORR      r1,r2,r1,LSL #5
        0x00003a52:    ea410080    A...    ORR      r0,r1,r0,LSL #2
        0x00003a56:    f0407000    @..p    ORR      r0,r0,#0x2000000
        0x00003a5a:    6800        .h      LDR      r0,[r0,#0]
        0x00003a5c:    2800        .(      CMP      r0,#0
        0x00003a5e:    bf18        ..      IT       NE
        0x00003a60:    2001        .       MOVNE    r0,#1
        0x00003a62:    4770        pG      BX       lr
    $d
        0x00003a64:    400fea00    ...@    DCD    1074784768
    $t
    i.SysCtlPeripheralReset
    SysCtlPeripheralReset
        0x00003a68:    f3c02307    ...#    UBFX     r3,r0,#8,#8
        0x00003a6c:    490c        .I      LDR      r1,[pc,#48] ; [0x3aa0] = 0x400fe500
        0x00003a6e:    b2c0        ..      UXTB     r0,r0
        0x00003a70:    4419        .D      ADD      r1,r1,r3
        0x00003a72:    f0014370    ..pC    AND      r3,r1,#0xf0000000
        0x00003a76:    f3c10113    ....    UBFX     r1,r1,#0,#20
        0x00003a7a:    ea431141    C.A.    ORR      r1,r3,r1,LSL #5
        0x00003a7e:    ea410080    A...    ORR      r0,r1,r0,LSL #2
        0x00003a82:    f0407100    @..q    ORR      r1,r0,#0x2000000
        0x00003a86:    b081        ..      SUB      sp,sp,#4
        0x00003a88:    2201        ."      MOVS     r2,#1
        0x00003a8a:    600a        .`      STR      r2,[r1,#0]
        0x00003a8c:    2200        ."      MOVS     r2,#0
        0x00003a8e:    9200        ..      STR      r2,[sp,#0]
        0x00003a90:    9800        ..      LDR      r0,[sp,#0]
        0x00003a92:    1c40        @.      ADDS     r0,r0,#1
        0x00003a94:    9000        ..      STR      r0,[sp,#0]
        0x00003a96:    2810        .(      CMP      r0,#0x10
        0x00003a98:    d3fa        ..      BCC      0x3a90 ; SysCtlPeripheralReset + 40
        0x00003a9a:    600a        .`      STR      r2,[r1,#0]
        0x00003a9c:    b001        ..      ADD      sp,sp,#4
        0x00003a9e:    4770        pG      BX       lr
    $d
        0x00003aa0:    400fe500    ...@    DCD    1074783488
    $t
    i.SysCtlPeripheralSleepDisable
    SysCtlPeripheralSleepDisable
        0x00003aa4:    f3c02307    ...#    UBFX     r3,r0,#8,#8
        0x00003aa8:    4907        .I      LDR      r1,[pc,#28] ; [0x3ac8] = 0x400fe700
        0x00003aaa:    b2c0        ..      UXTB     r0,r0
        0x00003aac:    4419        .D      ADD      r1,r1,r3
        0x00003aae:    f0014370    ..pC    AND      r3,r1,#0xf0000000
        0x00003ab2:    f3c10113    ....    UBFX     r1,r1,#0,#20
        0x00003ab6:    ea431141    C.A.    ORR      r1,r3,r1,LSL #5
        0x00003aba:    ea410080    A...    ORR      r0,r1,r0,LSL #2
        0x00003abe:    f0407000    @..p    ORR      r0,r0,#0x2000000
        0x00003ac2:    2200        ."      MOVS     r2,#0
        0x00003ac4:    6002        .`      STR      r2,[r0,#0]
        0x00003ac6:    4770        pG      BX       lr
    $d
        0x00003ac8:    400fe700    ...@    DCD    1074784000
    $t
    i.SysCtlPeripheralSleepEnable
    SysCtlPeripheralSleepEnable
        0x00003acc:    f3c02307    ...#    UBFX     r3,r0,#8,#8
        0x00003ad0:    4907        .I      LDR      r1,[pc,#28] ; [0x3af0] = 0x400fe700
        0x00003ad2:    b2c0        ..      UXTB     r0,r0
        0x00003ad4:    4419        .D      ADD      r1,r1,r3
        0x00003ad6:    f0014370    ..pC    AND      r3,r1,#0xf0000000
        0x00003ada:    f3c10113    ....    UBFX     r1,r1,#0,#20
        0x00003ade:    ea431141    C.A.    ORR      r1,r3,r1,LSL #5
        0x00003ae2:    ea410080    A...    ORR      r0,r1,r0,LSL #2
        0x00003ae6:    f0407000    @..p    ORR      r0,r0,#0x2000000
        0x00003aea:    2201        ."      MOVS     r2,#1
        0x00003aec:    6002        .`      STR      r2,[r0,#0]
        0x00003aee:    4770        pG      BX       lr
    $d
        0x00003af0:    400fe700    ...@    DCD    1074784000
    $t
    i.SysCtlReset
    SysCtlReset
        0x00003af4:    4902        .I      LDR      r1,[pc,#8] ; [0x3b00] = 0xe000ed0c
        0x00003af6:    4801        .H      LDR      r0,[pc,#4] ; [0x3afc] = 0x5fa0004
        0x00003af8:    6008        .`      STR      r0,[r1,#0]
        0x00003afa:    e7fe        ..      B        0x3afa ; SysCtlReset + 6
    $d
        0x00003afc:    05fa0004    ....    DCD    100270084
        0x00003b00:    e000ed0c    ....    DCD    3758157068
    $t
    i.SysCtlResetBehaviorGet
    SysCtlResetBehaviorGet
        0x00003b04:    4801        .H      LDR      r0,[pc,#4] ; [0x3b0c] = 0x400fe1d8
        0x00003b06:    6800        .h      LDR      r0,[r0,#0]
        0x00003b08:    4770        pG      BX       lr
    $d
        0x00003b0a:    0000        ..      DCW    0
        0x00003b0c:    400fe1d8    ...@    DCD    1074782680
    $t
    i.SysCtlResetBehaviorSet
    SysCtlResetBehaviorSet
        0x00003b10:    4901        .I      LDR      r1,[pc,#4] ; [0x3b18] = 0x400fe1d8
        0x00003b12:    6008        .`      STR      r0,[r1,#0]
        0x00003b14:    4770        pG      BX       lr
    $d
        0x00003b16:    0000        ..      DCW    0
        0x00003b18:    400fe1d8    ...@    DCD    1074782680
    $t
    i.SysCtlResetCauseClear
    SysCtlResetCauseClear
        0x00003b1c:    4902        .I      LDR      r1,[pc,#8] ; [0x3b28] = 0x400fe000
        0x00003b1e:    6dca        .m      LDR      r2,[r1,#0x5c]
        0x00003b20:    ea220000    "...    BIC      r0,r2,r0
        0x00003b24:    65c8        .e      STR      r0,[r1,#0x5c]
        0x00003b26:    4770        pG      BX       lr
    $d
        0x00003b28:    400fe000    ...@    DCD    1074782208
    $t
    i.SysCtlResetCauseGet
    SysCtlResetCauseGet
        0x00003b2c:    4801        .H      LDR      r0,[pc,#4] ; [0x3b34] = 0x400fe000
        0x00003b2e:    6dc0        .m      LDR      r0,[r0,#0x5c]
        0x00003b30:    4770        pG      BX       lr
    $d
        0x00003b32:    0000        ..      DCW    0
        0x00003b34:    400fe000    ...@    DCD    1074782208
    $t
    i.SysCtlSRAMSizeGet
    SysCtlSRAMSizeGet
        0x00003b38:    4802        .H      LDR      r0,[pc,#8] ; [0x3b44] = 0x400fdfc4
        0x00003b3a:    6800        .h      LDR      r0,[r0,#0]
        0x00003b3c:    1c40        @.      ADDS     r0,r0,#1
        0x00003b3e:    0200        ..      LSLS     r0,r0,#8
        0x00003b40:    4770        pG      BX       lr
    $d
        0x00003b42:    0000        ..      DCW    0
        0x00003b44:    400fdfc4    ...@    DCD    1074782148
    $t
    i.SysCtlSleep
    SysCtlSleep
        0x00003b48:    f7fcbbb7    ....    B        CPUwfi ; 0x2ba
    i.SysCtlSleepPowerSet
    SysCtlSleepPowerSet
        0x00003b4c:    4901        .I      LDR      r1,[pc,#4] ; [0x3b54] = 0x400fe188
        0x00003b4e:    6008        .`      STR      r0,[r1,#0]
        0x00003b50:    4770        pG      BX       lr
    $d
        0x00003b52:    0000        ..      DCW    0
        0x00003b54:    400fe188    ...@    DCD    1074782600
    $t
    i.SysCtlUSBPLLDisable
    SysCtlUSBPLLDisable
        0x00003b58:    4802        .H      LDR      r0,[pc,#8] ; [0x3b64] = 0x400fe000
        0x00003b5a:    6f01        .o      LDR      r1,[r0,#0x70]
        0x00003b5c:    f4414180    A..A    ORR      r1,r1,#0x4000
        0x00003b60:    6701        .g      STR      r1,[r0,#0x70]
        0x00003b62:    4770        pG      BX       lr
    $d
        0x00003b64:    400fe000    ...@    DCD    1074782208
    $t
    i.SysCtlUSBPLLEnable
    SysCtlUSBPLLEnable
        0x00003b68:    4802        .H      LDR      r0,[pc,#8] ; [0x3b74] = 0x400fe000
        0x00003b6a:    6f01        .o      LDR      r1,[r0,#0x70]
        0x00003b6c:    f4214180    !..A    BIC      r1,r1,#0x4000
        0x00003b70:    6701        .g      STR      r1,[r0,#0x70]
        0x00003b72:    4770        pG      BX       lr
    $d
        0x00003b74:    400fe000    ...@    DCD    1074782208
    $t
    i.SysCtlVoltageEventClear
    SysCtlVoltageEventClear
        0x00003b78:    4902        .I      LDR      r1,[pc,#8] ; [0x3b84] = 0x400fe000
        0x00003b7a:    6e0a        .n      LDR      r2,[r1,#0x60]
        0x00003b7c:    4310        .C      ORRS     r0,r0,r2
        0x00003b7e:    6608        .f      STR      r0,[r1,#0x60]
        0x00003b80:    4770        pG      BX       lr
    $d
        0x00003b82:    0000        ..      DCW    0
        0x00003b84:    400fe000    ...@    DCD    1074782208
    $t
    i.SysCtlVoltageEventConfig
    SysCtlVoltageEventConfig
        0x00003b88:    4901        .I      LDR      r1,[pc,#4] ; [0x3b90] = 0x400fe000
        0x00003b8a:    6388        .c      STR      r0,[r1,#0x38]
        0x00003b8c:    4770        pG      BX       lr
    $d
        0x00003b8e:    0000        ..      DCW    0
        0x00003b90:    400fe000    ...@    DCD    1074782208
    $t
    i.SysCtlVoltageEventStatus
    SysCtlVoltageEventStatus
        0x00003b94:    4801        .H      LDR      r0,[pc,#4] ; [0x3b9c] = 0x400fe000
        0x00003b96:    6e00        .n      LDR      r0,[r0,#0x60]
        0x00003b98:    4770        pG      BX       lr
    $d
        0x00003b9a:    0000        ..      DCW    0
        0x00003b9c:    400fe000    ...@    DCD    1074782208
    $t
    i.UART9BitAddrSend
    UART9BitAddrSend
        0x00003ba0:    6982        .i      LDR      r2,[r0,#0x18]
        0x00003ba2:    f0020288    ....    AND      r2,r2,#0x88
        0x00003ba6:    2a80        .*      CMP      r2,#0x80
        0x00003ba8:    d1fa        ..      BNE      UART9BitAddrSend ; 0x3ba0
        0x00003baa:    6ac2        .j      LDR      r2,[r0,#0x2c]
        0x00003bac:    f0220304    "...    BIC      r3,r2,#4
        0x00003bb0:    f0430382    C...    ORR      r3,r3,#0x82
        0x00003bb4:    62c3        .b      STR      r3,[r0,#0x2c]
        0x00003bb6:    6001        .`      STR      r1,[r0,#0]
        0x00003bb8:    6981        .i      LDR      r1,[r0,#0x18]
        0x00003bba:    f0010188    ....    AND      r1,r1,#0x88
        0x00003bbe:    2980        .)      CMP      r1,#0x80
        0x00003bc0:    d1fa        ..      BNE      0x3bb8 ; UART9BitAddrSend + 24
        0x00003bc2:    62c2        .b      STR      r2,[r0,#0x2c]
        0x00003bc4:    4770        pG      BX       lr
    i.UART9BitAddrSet
    UART9BitAddrSet
        0x00003bc6:    f8c010a4    ....    STR      r1,[r0,#0xa4]
        0x00003bca:    f8c020a8    ...     STR      r2,[r0,#0xa8]
        0x00003bce:    4770        pG      BX       lr
    i.UART9BitDisable
    UART9BitDisable
        0x00003bd0:    f8d010a4    ....    LDR      r1,[r0,#0xa4]
        0x00003bd4:    f4214100    !..A    BIC      r1,r1,#0x8000
        0x00003bd8:    f8c010a4    ....    STR      r1,[r0,#0xa4]
        0x00003bdc:    4770        pG      BX       lr
    i.UART9BitEnable
    UART9BitEnable
        0x00003bde:    f8d010a4    ....    LDR      r1,[r0,#0xa4]
        0x00003be2:    f4414100    A..A    ORR      r1,r1,#0x8000
        0x00003be6:    f8c010a4    ....    STR      r1,[r0,#0xa4]
        0x00003bea:    4770        pG      BX       lr
    i.UARTBreakCtl
    UARTBreakCtl
        0x00003bec:    2900        .)      CMP      r1,#0
        0x00003bee:    6ac1        .j      LDR      r1,[r0,#0x2c]
        0x00003bf0:    bf14        ..      ITE      NE
        0x00003bf2:    f0410101    A...    ORRNE    r1,r1,#1
        0x00003bf6:    f0210101    !...    BICEQ    r1,r1,#1
        0x00003bfa:    62c1        .b      STR      r1,[r0,#0x2c]
        0x00003bfc:    4770        pG      BX       lr
    i.UARTBusy
    UARTBusy
        0x00003bfe:    6980        .i      LDR      r0,[r0,#0x18]
        0x00003c00:    f3c000c0    ....    UBFX     r0,r0,#3,#1
        0x00003c04:    4770        pG      BX       lr
    i.UARTCharGet
    UARTCharGet
        0x00003c06:    6981        .i      LDR      r1,[r0,#0x18]
        0x00003c08:    f0110f10    ....    TST      r1,#0x10
        0x00003c0c:    d1fb        ..      BNE      UARTCharGet ; 0x3c06
        0x00003c0e:    6800        .h      LDR      r0,[r0,#0]
        0x00003c10:    4770        pG      BX       lr
    i.UARTCharGetNonBlocking
    UARTCharGetNonBlocking
        0x00003c12:    6981        .i      LDR      r1,[r0,#0x18]
        0x00003c14:    f0110f10    ....    TST      r1,#0x10
        0x00003c18:    bf0c        ..      ITE      EQ
        0x00003c1a:    6800        .h      LDREQ    r0,[r0,#0]
        0x00003c1c:    f04f30ff    O..0    MOVNE    r0,#0xffffffff
        0x00003c20:    4770        pG      BX       lr
    i.UARTCharPut
    UARTCharPut
        0x00003c22:    6982        .i      LDR      r2,[r0,#0x18]
        0x00003c24:    f0120f20    .. .    TST      r2,#0x20
        0x00003c28:    d1fb        ..      BNE      UARTCharPut ; 0x3c22
        0x00003c2a:    6001        .`      STR      r1,[r0,#0]
        0x00003c2c:    4770        pG      BX       lr
    i.UARTCharPutNonBlocking
    UARTCharPutNonBlocking
        0x00003c2e:    6982        .i      LDR      r2,[r0,#0x18]
        0x00003c30:    f0120f20    .. .    TST      r2,#0x20
        0x00003c34:    bf06        ..      ITTE     EQ
        0x00003c36:    6001        .`      STREQ    r1,[r0,#0]
        0x00003c38:    2001        .       MOVEQ    r0,#1
        0x00003c3a:    2000        .       MOVNE    r0,#0
        0x00003c3c:    4770        pG      BX       lr
    i.UARTCharsAvail
    UARTCharsAvail
        0x00003c3e:    6980        .i      LDR      r0,[r0,#0x18]
        0x00003c40:    2101        .!      MOVS     r1,#1
        0x00003c42:    ea211010    !...    BIC      r0,r1,r0,LSR #4
        0x00003c46:    4770        pG      BX       lr
    i.UARTClockSourceGet
    UARTClockSourceGet
        0x00003c48:    f8d00fc8    ....    LDR      r0,[r0,#0xfc8]
        0x00003c4c:    4770        pG      BX       lr
    i.UARTClockSourceSet
    UARTClockSourceSet
        0x00003c4e:    f8c01fc8    ....    STR      r1,[r0,#0xfc8]
        0x00003c52:    4770        pG      BX       lr
    i.UARTConfigGetExpClk
    UARTConfigGetExpClk
        0x00003c54:    b410        ..      PUSH     {r4}
        0x00003c56:    6a44        Dj      LDR      r4,[r0,#0x24]
        0x00003c58:    f8d0c028    ..(.    LDR      r12,[r0,#0x28]
        0x00003c5c:    0089        ..      LSLS     r1,r1,#2
        0x00003c5e:    eb0c1c84    ....    ADD      r12,r12,r4,LSL #6
        0x00003c62:    fbb1f1fc    ....    UDIV     r1,r1,r12
        0x00003c66:    6011        .`      STR      r1,[r2,#0]
        0x00003c68:    f8d0c030    ..0.    LDR      r12,[r0,#0x30]
        0x00003c6c:    f01c0f20    .. .    TST      r12,#0x20
        0x00003c70:    bf1c        ..      ITT      NE
        0x00003c72:    0049        I.      LSLNE    r1,r1,#1
        0x00003c74:    6011        .`      STRNE    r1,[r2,#0]
        0x00003c76:    6ac0        .j      LDR      r0,[r0,#0x2c]
        0x00003c78:    f00000ee    ....    AND      r0,r0,#0xee
        0x00003c7c:    6018        .`      STR      r0,[r3,#0]
        0x00003c7e:    bc10        ..      POP      {r4}
        0x00003c80:    4770        pG      BX       lr
    i.UARTConfigSetExpClk
    UARTConfigSetExpClk
        0x00003c82:    f8d0c018    ....    LDR      r12,[r0,#0x18]
        0x00003c86:    f01c0f08    ....    TST      r12,#8
        0x00003c8a:    d1fa        ..      BNE      UARTConfigSetExpClk ; 0x3c82
        0x00003c8c:    f8d0c02c    ..,.    LDR      r12,[r0,#0x2c]
        0x00003c90:    f02c0c10    ,...    BIC      r12,r12,#0x10
        0x00003c94:    f8c0c02c    ..,.    STR      r12,[r0,#0x2c]
        0x00003c98:    f8d0c030    ..0.    LDR      r12,[r0,#0x30]
        0x00003c9c:    f02c0c01    ,...    BIC      r12,r12,#1
        0x00003ca0:    f42c7c40    ,.@|    BIC      r12,r12,#0x300
        0x00003ca4:    f8c0c030    ..0.    STR      r12,[r0,#0x30]
        0x00003ca8:    f8d0c030    ..0.    LDR      r12,[r0,#0x30]
        0x00003cac:    ebb11f02    ....    CMP      r1,r2,LSL #4
        0x00003cb0:    bf34        4.      ITE      CC
        0x00003cb2:    f04c0c20    L. .    ORRCC    r12,r12,#0x20
        0x00003cb6:    f02c0c20    ,. .    BICCS    r12,r12,#0x20
        0x00003cba:    f8c0c030    ..0.    STR      r12,[r0,#0x30]
        0x00003cbe:    bf38        8.      IT       CC
        0x00003cc0:    0852        R.      LSRCC    r2,r2,#1
        0x00003cc2:    00c9        ..      LSLS     r1,r1,#3
        0x00003cc4:    fbb1f1f2    ....    UDIV     r1,r1,r2
        0x00003cc8:    1c49        I.      ADDS     r1,r1,#1
        0x00003cca:    0849        I.      LSRS     r1,r1,#1
        0x00003ccc:    098a        ..      LSRS     r2,r1,#6
        0x00003cce:    6242        Bb      STR      r2,[r0,#0x24]
        0x00003cd0:    f001013f    ..?.    AND      r1,r1,#0x3f
        0x00003cd4:    6281        .b      STR      r1,[r0,#0x28]
        0x00003cd6:    62c3        .b      STR      r3,[r0,#0x2c]
        0x00003cd8:    2100        .!      MOVS     r1,#0
        0x00003cda:    6181        .a      STR      r1,[r0,#0x18]
        0x00003cdc:    6ac1        .j      LDR      r1,[r0,#0x2c]
        0x00003cde:    f0410110    A...    ORR      r1,r1,#0x10
        0x00003ce2:    62c1        .b      STR      r1,[r0,#0x2c]
        0x00003ce4:    6b01        .k      LDR      r1,[r0,#0x30]
        0x00003ce6:    f2403201    @..2    MOV      r2,#0x301
        0x00003cea:    4311        .C      ORRS     r1,r1,r2
        0x00003cec:    6301        .c      STR      r1,[r0,#0x30]
        0x00003cee:    4770        pG      BX       lr
    i.UARTDMADisable
    UARTDMADisable
        0x00003cf0:    6c82        .l      LDR      r2,[r0,#0x48]
        0x00003cf2:    ea220101    "...    BIC      r1,r2,r1
        0x00003cf6:    6481        .d      STR      r1,[r0,#0x48]
        0x00003cf8:    4770        pG      BX       lr
    i.UARTDMAEnable
    UARTDMAEnable
        0x00003cfa:    6c82        .l      LDR      r2,[r0,#0x48]
        0x00003cfc:    4311        .C      ORRS     r1,r1,r2
        0x00003cfe:    6481        .d      STR      r1,[r0,#0x48]
        0x00003d00:    4770        pG      BX       lr
    i.UARTDisable
    UARTDisable
        0x00003d02:    6981        .i      LDR      r1,[r0,#0x18]
        0x00003d04:    f0110f08    ....    TST      r1,#8
        0x00003d08:    d1fb        ..      BNE      UARTDisable ; 0x3d02
        0x00003d0a:    6ac1        .j      LDR      r1,[r0,#0x2c]
        0x00003d0c:    f0210110    !...    BIC      r1,r1,#0x10
        0x00003d10:    62c1        .b      STR      r1,[r0,#0x2c]
        0x00003d12:    6b01        .k      LDR      r1,[r0,#0x30]
        0x00003d14:    f0210101    !...    BIC      r1,r1,#1
        0x00003d18:    f4217140    !.@q    BIC      r1,r1,#0x300
        0x00003d1c:    6301        .c      STR      r1,[r0,#0x30]
        0x00003d1e:    4770        pG      BX       lr
    i.UARTDisableSIR
    UARTDisableSIR
        0x00003d20:    6b01        .k      LDR      r1,[r0,#0x30]
        0x00003d22:    f0210106    !...    BIC      r1,r1,#6
        0x00003d26:    6301        .c      STR      r1,[r0,#0x30]
        0x00003d28:    4770        pG      BX       lr
        0x00003d2a:    0000        ..      MOVS     r0,r0
    i.UARTEchoSet
    UARTEchoSet
        0x00003d2c:    f0800101    ....    EOR      r1,r0,#1
        0x00003d30:    4a01        .J      LDR      r2,[pc,#4] ; [0x3d38] = 0x20000038
        0x00003d32:    7011        .p      STRB     r1,[r2,#0]
        0x00003d34:    4770        pG      BX       lr
    $d
        0x00003d36:    0000        ..      DCW    0
        0x00003d38:    20000038    8..     DCD    536870968
    $t
    i.UARTEnable
    UARTEnable
        0x00003d3c:    6ac1        .j      LDR      r1,[r0,#0x2c]
        0x00003d3e:    f0410110    A...    ORR      r1,r1,#0x10
        0x00003d42:    62c1        .b      STR      r1,[r0,#0x2c]
        0x00003d44:    6b01        .k      LDR      r1,[r0,#0x30]
        0x00003d46:    f2403201    @..2    MOV      r2,#0x301
        0x00003d4a:    4311        .C      ORRS     r1,r1,r2
        0x00003d4c:    6301        .c      STR      r1,[r0,#0x30]
        0x00003d4e:    4770        pG      BX       lr
    i.UARTEnableSIR
    UARTEnableSIR
        0x00003d50:    2900        .)      CMP      r1,#0
        0x00003d52:    6b01        .k      LDR      r1,[r0,#0x30]
        0x00003d54:    bf14        ..      ITE      NE
        0x00003d56:    f0410106    A...    ORRNE    r1,r1,#6
        0x00003d5a:    f0410102    A...    ORREQ    r1,r1,#2
        0x00003d5e:    6301        .c      STR      r1,[r0,#0x30]
        0x00003d60:    4770        pG      BX       lr
    i.UARTFIFODisable
    UARTFIFODisable
        0x00003d62:    6ac1        .j      LDR      r1,[r0,#0x2c]
        0x00003d64:    f0210110    !...    BIC      r1,r1,#0x10
        0x00003d68:    62c1        .b      STR      r1,[r0,#0x2c]
        0x00003d6a:    4770        pG      BX       lr
    i.UARTFIFOEnable
    UARTFIFOEnable
        0x00003d6c:    6ac1        .j      LDR      r1,[r0,#0x2c]
        0x00003d6e:    f0410110    A...    ORR      r1,r1,#0x10
        0x00003d72:    62c1        .b      STR      r1,[r0,#0x2c]
        0x00003d74:    4770        pG      BX       lr
    i.UARTFIFOLevelGet
    UARTFIFOLevelGet
        0x00003d76:    6b40        @k      LDR      r0,[r0,#0x34]
        0x00003d78:    f0000307    ....    AND      r3,r0,#7
        0x00003d7c:    f0000038    ..8.    AND      r0,r0,#0x38
        0x00003d80:    600b        .`      STR      r3,[r1,#0]
        0x00003d82:    6010        .`      STR      r0,[r2,#0]
        0x00003d84:    4770        pG      BX       lr
    i.UARTFIFOLevelSet
    UARTFIFOLevelSet
        0x00003d86:    4311        .C      ORRS     r1,r1,r2
        0x00003d88:    6341        Ac      STR      r1,[r0,#0x34]
        0x00003d8a:    4770        pG      BX       lr
    i.UARTFlowControlGet
    UARTFlowControlGet
        0x00003d8c:    6b00        .k      LDR      r0,[r0,#0x30]
        0x00003d8e:    f4004040    ..@@    AND      r0,r0,#0xc000
        0x00003d92:    4770        pG      BX       lr
    i.UARTFlowControlSet
    UARTFlowControlSet
        0x00003d94:    6b02        .k      LDR      r2,[r0,#0x30]
        0x00003d96:    f4224240    ".@B    BIC      r2,r2,#0xc000
        0x00003d9a:    4311        .C      ORRS     r1,r1,r2
        0x00003d9c:    6301        .c      STR      r1,[r0,#0x30]
        0x00003d9e:    4770        pG      BX       lr
    i.UARTFlushRx
    UARTFlushRx
        0x00003da0:    b510        ..      PUSH     {r4,lr}
        0x00003da2:    f04f7180    O..q    MOV      r1,#0x1000000
        0x00003da6:    6c89        .l      LDR      r1,[r1,#0x48]
        0x00003da8:    6888        .h      LDR      r0,[r1,#8]
        0x00003daa:    4780        .G      BLX      r0
        0x00003dac:    4604        .F      MOV      r4,r0
        0x00003dae:    2000        .       MOVS     r0,#0
        0x00003db0:    4905        .I      LDR      r1,[pc,#20] ; [0x3dc8] = 0x20000048
        0x00003db2:    6008        .`      STR      r0,[r1,#0]
        0x00003db4:    4905        .I      LDR      r1,[pc,#20] ; [0x3dcc] = 0x20000044
        0x00003db6:    6008        .`      STR      r0,[r1,#0]
        0x00003db8:    b924        $.      CBNZ     r4,0x3dc4 ; UARTFlushRx + 36
        0x00003dba:    f04f7180    O..q    MOV      r1,#0x1000000
        0x00003dbe:    6c89        .l      LDR      r1,[r1,#0x48]
        0x00003dc0:    6848        Hh      LDR      r0,[r1,#4]
        0x00003dc2:    4780        .G      BLX      r0
        0x00003dc4:    bd10        ..      POP      {r4,pc}
    $d
        0x00003dc6:    0000        ..      DCW    0
        0x00003dc8:    20000048    H..     DCD    536870984
        0x00003dcc:    20000044    D..     DCD    536870980
    $t
    i.UARTFlushTx
    UARTFlushTx
        0x00003dd0:    b570        p.      PUSH     {r4-r6,lr}
        0x00003dd2:    4605        .F      MOV      r5,r0
        0x00003dd4:    b18d        ..      CBZ      r5,0x3dfa ; UARTFlushTx + 42
        0x00003dd6:    f04f7180    O..q    MOV      r1,#0x1000000
        0x00003dda:    6c89        .l      LDR      r1,[r1,#0x48]
        0x00003ddc:    6888        .h      LDR      r0,[r1,#8]
        0x00003dde:    4780        .G      BLX      r0
        0x00003de0:    4604        .F      MOV      r4,r0
        0x00003de2:    2000        .       MOVS     r0,#0
        0x00003de4:    4909        .I      LDR      r1,[pc,#36] ; [0x3e0c] = 0x20000040
        0x00003de6:    6008        .`      STR      r0,[r1,#0]
        0x00003de8:    4909        .I      LDR      r1,[pc,#36] ; [0x3e10] = 0x2000003c
        0x00003dea:    6008        .`      STR      r0,[r1,#0]
        0x00003dec:    b964        d.      CBNZ     r4,0x3e08 ; UARTFlushTx + 56
        0x00003dee:    f04f7180    O..q    MOV      r1,#0x1000000
        0x00003df2:    6c89        .l      LDR      r1,[r1,#0x48]
        0x00003df4:    6848        Hh      LDR      r0,[r1,#4]
        0x00003df6:    4780        .G      BLX      r0
        0x00003df8:    e006        ..      B        0x3e08 ; UARTFlushTx + 56
        0x00003dfa:    bf00        ..      NOP      
        0x00003dfc:    4904        .I      LDR      r1,[pc,#16] ; [0x3e10] = 0x2000003c
        0x00003dfe:    4803        .H      LDR      r0,[pc,#12] ; [0x3e0c] = 0x20000040
        0x00003e00:    f7fefbdc    ....    BL       IsBufferEmpty ; 0x25bc
        0x00003e04:    2800        .(      CMP      r0,#0
        0x00003e06:    d0f9        ..      BEQ      0x3dfc ; UARTFlushTx + 44
        0x00003e08:    bd70        p.      POP      {r4-r6,pc}
    $d
        0x00003e0a:    0000        ..      DCW    0
        0x00003e0c:    20000040    @..     DCD    536870976
        0x00003e10:    2000003c    <..     DCD    536870972
    $t
    i.UARTIntClear
    UARTIntClear
        0x00003e14:    6441        Ad      STR      r1,[r0,#0x44]
        0x00003e16:    4770        pG      BX       lr
    i.UARTIntDisable
    UARTIntDisable
        0x00003e18:    6b82        .k      LDR      r2,[r0,#0x38]
        0x00003e1a:    ea220101    "...    BIC      r1,r2,r1
        0x00003e1e:    6381        .c      STR      r1,[r0,#0x38]
        0x00003e20:    4770        pG      BX       lr
    i.UARTIntEnable
    UARTIntEnable
        0x00003e22:    6b82        .k      LDR      r2,[r0,#0x38]
        0x00003e24:    4311        .C      ORRS     r1,r1,r2
        0x00003e26:    6381        .c      STR      r1,[r0,#0x38]
        0x00003e28:    4770        pG      BX       lr
        0x00003e2a:    0000        ..      MOVS     r0,r0
    i.UARTIntRegister
    UARTIntRegister
        0x00003e2c:    4a12        .J      LDR      r2,[pc,#72] ; [0x3e78] = 0x400fe000
        0x00003e2e:    b510        ..      PUSH     {r4,lr}
        0x00003e30:    4b10        .K      LDR      r3,[pc,#64] ; [0x3e74] = 0x5880
        0x00003e32:    6812        .h      LDR      r2,[r2,#0]
        0x00003e34:    f04f0c08    O...    MOV      r12,#8
        0x00003e38:    4c10        .L      LDR      r4,[pc,#64] ; [0x3e7c] = 0x70ff0000
        0x00003e3a:    4022        "@      ANDS     r2,r2,r4
        0x00003e3c:    f1a25480    ...T    SUB      r4,r2,#0x10000000
        0x00003e40:    f5b42420    .. $    SUBS     r4,r4,#0xa0000
        0x00003e44:    bf08        ..      IT       EQ
        0x00003e46:    4b0e        .K      LDREQ    r3,[pc,#56] ; [0x3e80] = 0x58c0
        0x00003e48:    2200        ."      MOVS     r2,#0
        0x00003e4a:    f8534032    S.2@    LDR      r4,[r3,r2,LSL #3]
        0x00003e4e:    4284        .B      CMP      r4,r0
        0x00003e50:    d103        ..      BNE      0x3e5a ; UARTIntRegister + 46
        0x00003e52:    eb0300c2    ....    ADD      r0,r3,r2,LSL #3
        0x00003e56:    6844        Dh      LDR      r4,[r0,#4]
        0x00003e58:    e003        ..      B        0x3e62 ; UARTIntRegister + 54
        0x00003e5a:    1c52        R.      ADDS     r2,r2,#1
        0x00003e5c:    4562        bE      CMP      r2,r12
        0x00003e5e:    d3f4        ..      BCC      0x3e4a ; UARTIntRegister + 30
        0x00003e60:    2400        .$      MOVS     r4,#0
        0x00003e62:    4620         F      MOV      r0,r4
        0x00003e64:    f7fefb80    ....    BL       IntRegister ; 0x2568
        0x00003e68:    4620         F      MOV      r0,r4
        0x00003e6a:    e8bd4010    ...@    POP      {r4,lr}
        0x00003e6e:    f7feba5f    .._.    B        IntEnable ; 0x2330
    $d
        0x00003e72:    0000        ..      DCW    0
        0x00003e74:    00005880    .X..    DCD    22656
        0x00003e78:    400fe000    ...@    DCD    1074782208
        0x00003e7c:    70ff0000    ...p    DCD    1895759872
        0x00003e80:    000058c0    .X..    DCD    22720
    $t
    i.UARTIntStatus
    UARTIntStatus
        0x00003e84:    2900        .)      CMP      r1,#0
        0x00003e86:    bf14        ..      ITE      NE
        0x00003e88:    6c00        .l      LDRNE    r0,[r0,#0x40]
        0x00003e8a:    6bc0        .k      LDREQ    r0,[r0,#0x3c]
        0x00003e8c:    4770        pG      BX       lr
        0x00003e8e:    0000        ..      MOVS     r0,r0
    i.UARTIntUnregister
    UARTIntUnregister
        0x00003e90:    4912        .I      LDR      r1,[pc,#72] ; [0x3edc] = 0x400fe000
        0x00003e92:    b510        ..      PUSH     {r4,lr}
        0x00003e94:    4a10        .J      LDR      r2,[pc,#64] ; [0x3ed8] = 0x5880
        0x00003e96:    6809        .h      LDR      r1,[r1,#0]
        0x00003e98:    2308        .#      MOVS     r3,#8
        0x00003e9a:    f8dfc044    ..D.    LDR      r12,[pc,#68] ; [0x3ee0] = 0x70ff0000
        0x00003e9e:    ea01010c    ....    AND      r1,r1,r12
        0x00003ea2:    f1a15c80    ...\    SUB      r12,r1,#0x10000000
        0x00003ea6:    f5bc2c20    .. ,    SUBS     r12,r12,#0xa0000
        0x00003eaa:    bf08        ..      IT       EQ
        0x00003eac:    4a0d        .J      LDREQ    r2,[pc,#52] ; [0x3ee4] = 0x58c0
        0x00003eae:    2100        .!      MOVS     r1,#0
        0x00003eb0:    f852c031    R.1.    LDR      r12,[r2,r1,LSL #3]
        0x00003eb4:    4584        .E      CMP      r12,r0
        0x00003eb6:    d103        ..      BNE      0x3ec0 ; UARTIntUnregister + 48
        0x00003eb8:    eb0200c1    ....    ADD      r0,r2,r1,LSL #3
        0x00003ebc:    6844        Dh      LDR      r4,[r0,#4]
        0x00003ebe:    e003        ..      B        0x3ec8 ; UARTIntUnregister + 56
        0x00003ec0:    1c49        I.      ADDS     r1,r1,#1
        0x00003ec2:    4299        .B      CMP      r1,r3
        0x00003ec4:    d3f4        ..      BCC      0x3eb0 ; UARTIntUnregister + 32
        0x00003ec6:    2400        .$      MOVS     r4,#0
        0x00003ec8:    4620         F      MOV      r0,r4
        0x00003eca:    f7fef9ff    ....    BL       IntDisable ; 0x22cc
        0x00003ece:    4620         F      MOV      r0,r4
        0x00003ed0:    e8bd4010    ...@    POP      {r4,lr}
        0x00003ed4:    f7febb68    ..h.    B        IntUnregister ; 0x25a8
    $d
        0x00003ed8:    00005880    .X..    DCD    22656
        0x00003edc:    400fe000    ...@    DCD    1074782208
        0x00003ee0:    70ff0000    ...p    DCD    1895759872
        0x00003ee4:    000058c0    .X..    DCD    22720
    $t
    i.UARTModemControlClear
    UARTModemControlClear
        0x00003ee8:    6b02        .k      LDR      r2,[r0,#0x30]
        0x00003eea:    f4016140    ..@a    AND      r1,r1,#0xc00
        0x00003eee:    ea220101    "...    BIC      r1,r2,r1
        0x00003ef2:    6301        .c      STR      r1,[r0,#0x30]
        0x00003ef4:    4770        pG      BX       lr
    i.UARTModemControlGet
    UARTModemControlGet
        0x00003ef6:    6b00        .k      LDR      r0,[r0,#0x30]
        0x00003ef8:    f4006040    ..@`    AND      r0,r0,#0xc00
        0x00003efc:    4770        pG      BX       lr
    i.UARTModemControlSet
    UARTModemControlSet
        0x00003efe:    6b02        .k      LDR      r2,[r0,#0x30]
        0x00003f00:    f4016140    ..@a    AND      r1,r1,#0xc00
        0x00003f04:    4311        .C      ORRS     r1,r1,r2
        0x00003f06:    6301        .c      STR      r1,[r0,#0x30]
        0x00003f08:    4770        pG      BX       lr
    i.UARTModemStatusGet
    UARTModemStatusGet
        0x00003f0a:    6980        .i      LDR      r0,[r0,#0x18]
        0x00003f0c:    f2401107    @...    MOV      r1,#0x107
        0x00003f10:    4008        .@      ANDS     r0,r0,r1
        0x00003f12:    4770        pG      BX       lr
    i.UARTParityModeGet
    UARTParityModeGet
        0x00003f14:    6ac0        .j      LDR      r0,[r0,#0x2c]
        0x00003f16:    f0000086    ....    AND      r0,r0,#0x86
        0x00003f1a:    4770        pG      BX       lr
    i.UARTParityModeSet
    UARTParityModeSet
        0x00003f1c:    6ac2        .j      LDR      r2,[r0,#0x2c]
        0x00003f1e:    f0220286    "...    BIC      r2,r2,#0x86
        0x00003f22:    4311        .C      ORRS     r1,r1,r2
        0x00003f24:    62c1        .b      STR      r1,[r0,#0x2c]
        0x00003f26:    4770        pG      BX       lr
    i.UARTPeek
    UARTPeek
        0x00003f28:    e92d41f0    -..A    PUSH     {r4-r8,lr}
        0x00003f2c:    4605        .F      MOV      r5,r0
        0x00003f2e:    2280        ."      MOVS     r2,#0x80
        0x00003f30:    490c        .I      LDR      r1,[pc,#48] ; [0x3f64] = 0x20000044
        0x00003f32:    480d        .H      LDR      r0,[pc,#52] ; [0x3f68] = 0x20000048
        0x00003f34:    f7fdfba3    ....    BL       GetBufferCount ; 0x167e
        0x00003f38:    4607        .F      MOV      r7,r0
        0x00003f3a:    480b        .H      LDR      r0,[pc,#44] ; [0x3f68] = 0x20000048
        0x00003f3c:    6806        .h      LDR      r6,[r0,#0]
        0x00003f3e:    2400        .$      MOVS     r4,#0
        0x00003f40:    e00a        ..      B        0x3f58 ; UARTPeek + 48
        0x00003f42:    480a        .H      LDR      r0,[pc,#40] ; [0x3f6c] = 0x20000c6c
        0x00003f44:    5d80        .]      LDRB     r0,[r0,r6]
        0x00003f46:    42a8        .B      CMP      r0,r5
        0x00003f48:    d102        ..      BNE      0x3f50 ; UARTPeek + 40
        0x00003f4a:    4620         F      MOV      r0,r4
        0x00003f4c:    e8bd81f0    ....    POP      {r4-r8,pc}
        0x00003f50:    1c70        p.      ADDS     r0,r6,#1
        0x00003f52:    f000067f    ....    AND      r6,r0,#0x7f
        0x00003f56:    1c64        d.      ADDS     r4,r4,#1
        0x00003f58:    42bc        .B      CMP      r4,r7
        0x00003f5a:    dbf2        ..      BLT      0x3f42 ; UARTPeek + 26
        0x00003f5c:    f04f30ff    O..0    MOV      r0,#0xffffffff
        0x00003f60:    e7f4        ..      B        0x3f4c ; UARTPeek + 36
    $d
        0x00003f62:    0000        ..      DCW    0
        0x00003f64:    20000044    D..     DCD    536870980
        0x00003f68:    20000048    H..     DCD    536870984
        0x00003f6c:    20000c6c    l..     DCD    536874092
    $t
    i.UARTPrimeTransmit
    UARTPrimeTransmit
        0x00003f70:    b510        ..      PUSH     {r4,lr}
        0x00003f72:    4604        .F      MOV      r4,r0
        0x00003f74:    491c        .I      LDR      r1,[pc,#112] ; [0x3fe8] = 0x2000003c
        0x00003f76:    481d        .H      LDR      r0,[pc,#116] ; [0x3fec] = 0x20000040
        0x00003f78:    f7fefb20    .. .    BL       IsBufferEmpty ; 0x25bc
        0x00003f7c:    bb90        ..      CBNZ     r0,0x3fe4 ; UARTPrimeTransmit + 116
        0x00003f7e:    4a1c        .J      LDR      r2,[pc,#112] ; [0x3ff0] = 0x5494
        0x00003f80:    4b1c        .K      LDR      r3,[pc,#112] ; [0x3ff4] = 0x20000050
        0x00003f82:    681b        .h      LDR      r3,[r3,#0]
        0x00003f84:    f8520023    R.#.    LDR      r0,[r2,r3,LSL #2]
        0x00003f88:    f04f7280    O..r    MOV      r2,#0x1000000
        0x00003f8c:    6c92        .l      LDR      r2,[r2,#0x48]
        0x00003f8e:    68d1        .h      LDR      r1,[r2,#0xc]
        0x00003f90:    4788        .G      BLX      r1
        0x00003f92:    e010        ..      B        0x3fb6 ; UARTPrimeTransmit + 70
        0x00003f94:    4818        .H      LDR      r0,[pc,#96] ; [0x3ff8] = 0x2000086c
        0x00003f96:    4b15        .K      LDR      r3,[pc,#84] ; [0x3fec] = 0x20000040
        0x00003f98:    681b        .h      LDR      r3,[r3,#0]
        0x00003f9a:    5cc1        .\      LDRB     r1,[r0,r3]
        0x00003f9c:    f04f7080    O..p    MOV      r0,#0x1000000
        0x00003fa0:    6940        @i      LDR      r0,[r0,#0x14]
        0x00003fa2:    6bc2        .k      LDR      r2,[r0,#0x3c]
        0x00003fa4:    4620         F      MOV      r0,r4
        0x00003fa6:    4790        .G      BLX      r2
        0x00003fa8:    4810        .H      LDR      r0,[pc,#64] ; [0x3fec] = 0x20000040
        0x00003faa:    6800        .h      LDR      r0,[r0,#0]
        0x00003fac:    1c40        @.      ADDS     r0,r0,#1
        0x00003fae:    f3c00009    ....    UBFX     r0,r0,#0,#10
        0x00003fb2:    490e        .I      LDR      r1,[pc,#56] ; [0x3fec] = 0x20000040
        0x00003fb4:    6008        .`      STR      r0,[r1,#0]
        0x00003fb6:    f04f7080    O..p    MOV      r0,#0x1000000
        0x00003fba:    6940        @i      LDR      r0,[r0,#0x14]
        0x00003fbc:    6b01        .k      LDR      r1,[r0,#0x30]
        0x00003fbe:    4620         F      MOV      r0,r4
        0x00003fc0:    4788        .G      BLX      r1
        0x00003fc2:    b128        (.      CBZ      r0,0x3fd0 ; UARTPrimeTransmit + 96
        0x00003fc4:    4908        .I      LDR      r1,[pc,#32] ; [0x3fe8] = 0x2000003c
        0x00003fc6:    4809        .H      LDR      r0,[pc,#36] ; [0x3fec] = 0x20000040
        0x00003fc8:    f7fefaf8    ....    BL       IsBufferEmpty ; 0x25bc
        0x00003fcc:    2800        .(      CMP      r0,#0
        0x00003fce:    d0e1        ..      BEQ      0x3f94 ; UARTPrimeTransmit + 36
        0x00003fd0:    4a07        .J      LDR      r2,[pc,#28] ; [0x3ff0] = 0x5494
        0x00003fd2:    4b08        .K      LDR      r3,[pc,#32] ; [0x3ff4] = 0x20000050
        0x00003fd4:    681b        .h      LDR      r3,[r3,#0]
        0x00003fd6:    f8520023    R.#.    LDR      r0,[r2,r3,LSL #2]
        0x00003fda:    f04f7280    O..r    MOV      r2,#0x1000000
        0x00003fde:    6c92        .l      LDR      r2,[r2,#0x48]
        0x00003fe0:    6811        .h      LDR      r1,[r2,#0]
        0x00003fe2:    4788        .G      BLX      r1
        0x00003fe4:    bd10        ..      POP      {r4,pc}
    $d
        0x00003fe6:    0000        ..      DCW    0
        0x00003fe8:    2000003c    <..     DCD    536870972
        0x00003fec:    20000040    @..     DCD    536870976
        0x00003ff0:    00005494    .T..    DCD    21652
        0x00003ff4:    20000050    P..     DCD    536870992
        0x00003ff8:    2000086c    l..     DCD    536873068
    $t
    i.UARTRxBytesAvail
    UARTRxBytesAvail
        0x00003ffc:    b510        ..      PUSH     {r4,lr}
        0x00003ffe:    2280        ."      MOVS     r2,#0x80
        0x00004000:    4902        .I      LDR      r1,[pc,#8] ; [0x400c] = 0x20000044
        0x00004002:    4803        .H      LDR      r0,[pc,#12] ; [0x4010] = 0x20000048
        0x00004004:    f7fdfb3b    ..;.    BL       GetBufferCount ; 0x167e
        0x00004008:    bd10        ..      POP      {r4,pc}
    $d
        0x0000400a:    0000        ..      DCW    0
        0x0000400c:    20000044    D..     DCD    536870980
        0x00004010:    20000048    H..     DCD    536870984
    $t
    i.UARTRxErrorClear
    UARTRxErrorClear
        0x00004014:    2100        .!      MOVS     r1,#0
        0x00004016:    6041        A`      STR      r1,[r0,#4]
        0x00004018:    4770        pG      BX       lr
    i.UARTRxErrorGet
    UARTRxErrorGet
        0x0000401a:    6840        @h      LDR      r0,[r0,#4]
        0x0000401c:    f000000f    ....    AND      r0,r0,#0xf
        0x00004020:    4770        pG      BX       lr
    i.UARTSmartCardDisable
    UARTSmartCardDisable
        0x00004022:    6b01        .k      LDR      r1,[r0,#0x30]
        0x00004024:    f0210108    !...    BIC      r1,r1,#8
        0x00004028:    6301        .c      STR      r1,[r0,#0x30]
        0x0000402a:    4770        pG      BX       lr
    i.UARTSmartCardEnable
    UARTSmartCardEnable
        0x0000402c:    6ac1        .j      LDR      r1,[r0,#0x2c]
        0x0000402e:    f02101e6    !...    BIC      r1,r1,#0xe6
        0x00004032:    f041016e    A.n.    ORR      r1,r1,#0x6e
        0x00004036:    62c1        .b      STR      r1,[r0,#0x2c]
        0x00004038:    6b01        .k      LDR      r1,[r0,#0x30]
        0x0000403a:    f0410108    A...    ORR      r1,r1,#8
        0x0000403e:    6301        .c      STR      r1,[r0,#0x30]
        0x00004040:    4770        pG      BX       lr
    i.UARTSpaceAvail
    UARTSpaceAvail
        0x00004042:    6980        .i      LDR      r0,[r0,#0x18]
        0x00004044:    2101        .!      MOVS     r1,#1
        0x00004046:    ea211050    !.P.    BIC      r0,r1,r0,LSR #5
        0x0000404a:    4770        pG      BX       lr
    i.UARTStdioConfig
    UARTStdioConfig
        0x0000404c:    e92d41f0    -..A    PUSH     {r4-r8,lr}
        0x00004050:    4604        .F      MOV      r4,r0
        0x00004052:    460d        .F      MOV      r5,r1
        0x00004054:    4616        .F      MOV      r6,r2
        0x00004056:    4a2a        *J      LDR      r2,[pc,#168] ; [0x4100] = 0x54a0
        0x00004058:    f8520024    R.$.    LDR      r0,[r2,r4,LSL #2]
        0x0000405c:    f04f7280    O..r    MOV      r2,#0x1000000
        0x00004060:    6c52        Rl      LDR      r2,[r2,#0x44]
        0x00004062:    6911        .i      LDR      r1,[r2,#0x10]
        0x00004064:    4788        .G      BLX      r1
        0x00004066:    b908        ..      CBNZ     r0,0x406c ; UARTStdioConfig + 32
        0x00004068:    e8bd81f0    ....    POP      {r4-r8,pc}
        0x0000406c:    4825        %H      LDR      r0,[pc,#148] ; [0x4104] = 0x5488
        0x0000406e:    f8500024    P.$.    LDR      r0,[r0,r4,LSL #2]
        0x00004072:    4925        %I      LDR      r1,[pc,#148] ; [0x4108] = 0x2000004c
        0x00004074:    6008        .`      STR      r0,[r1,#0]
        0x00004076:    4a22        "J      LDR      r2,[pc,#136] ; [0x4100] = 0x54a0
        0x00004078:    f8520024    R.$.    LDR      r0,[r2,r4,LSL #2]
        0x0000407c:    f04f7280    O..r    MOV      r2,#0x1000000
        0x00004080:    6c52        Rl      LDR      r2,[r2,#0x44]
        0x00004082:    6991        .i      LDR      r1,[r2,#0x18]
        0x00004084:    4788        .G      BLX      r1
        0x00004086:    f04f7080    O..p    MOV      r0,#0x1000000
        0x0000408a:    6940        @i      LDR      r0,[r0,#0x14]
        0x0000408c:    2360        `#      MOVS     r3,#0x60
        0x0000408e:    462a        *F      MOV      r2,r5
        0x00004090:    4631        1F      MOV      r1,r6
        0x00004092:    6947        Gi      LDR      r7,[r0,#0x14]
        0x00004094:    481c        .H      LDR      r0,[pc,#112] ; [0x4108] = 0x2000004c
        0x00004096:    6800        .h      LDR      r0,[r0,#0]
        0x00004098:    47b8        .G      BLX      r7
        0x0000409a:    f04f7080    O..p    MOV      r0,#0x1000000
        0x0000409e:    6940        @i      LDR      r0,[r0,#0x14]
        0x000040a0:    2200        ."      MOVS     r2,#0
        0x000040a2:    4611        .F      MOV      r1,r2
        0x000040a4:    68c3        .h      LDR      r3,[r0,#0xc]
        0x000040a6:    4818        .H      LDR      r0,[pc,#96] ; [0x4108] = 0x2000004c
        0x000040a8:    6800        .h      LDR      r0,[r0,#0]
        0x000040aa:    4798        .G      BLX      r3
        0x000040ac:    f7fffe78    ..x.    BL       UARTFlushRx ; 0x3da0
        0x000040b0:    2001        .       MOVS     r0,#1
        0x000040b2:    f7fffe8d    ....    BL       UARTFlushTx ; 0x3dd0
        0x000040b6:    4815        .H      LDR      r0,[pc,#84] ; [0x410c] = 0x20000050
        0x000040b8:    6004        .`      STR      r4,[r0,#0]
        0x000040ba:    f04f7080    O..p    MOV      r0,#0x1000000
        0x000040be:    6940        @i      LDR      r0,[r0,#0x14]
        0x000040c0:    f04f31ff    O..1    MOV      r1,#0xffffffff
        0x000040c4:    6c82        .l      LDR      r2,[r0,#0x48]
        0x000040c6:    4810        .H      LDR      r0,[pc,#64] ; [0x4108] = 0x2000004c
        0x000040c8:    6800        .h      LDR      r0,[r0,#0]
        0x000040ca:    4790        .G      BLX      r2
        0x000040cc:    f04f7080    O..p    MOV      r0,#0x1000000
        0x000040d0:    6940        @i      LDR      r0,[r0,#0x14]
        0x000040d2:    2150        P!      MOVS     r1,#0x50
        0x000040d4:    6c42        Bl      LDR      r2,[r0,#0x44]
        0x000040d6:    480c        .H      LDR      r0,[pc,#48] ; [0x4108] = 0x2000004c
        0x000040d8:    6800        .h      LDR      r0,[r0,#0]
        0x000040da:    4790        .G      BLX      r2
        0x000040dc:    4a0c        .J      LDR      r2,[pc,#48] ; [0x4110] = 0x5494
        0x000040de:    f8520024    R.$.    LDR      r0,[r2,r4,LSL #2]
        0x000040e2:    f04f7280    O..r    MOV      r2,#0x1000000
        0x000040e6:    6c92        .l      LDR      r2,[r2,#0x48]
        0x000040e8:    6811        .h      LDR      r1,[r2,#0]
        0x000040ea:    4788        .G      BLX      r1
        0x000040ec:    f04f7080    O..p    MOV      r0,#0x1000000
        0x000040f0:    6940        @i      LDR      r0,[r0,#0x14]
        0x000040f2:    69c1        .i      LDR      r1,[r0,#0x1c]
        0x000040f4:    4804        .H      LDR      r0,[pc,#16] ; [0x4108] = 0x2000004c
        0x000040f6:    6800        .h      LDR      r0,[r0,#0]
        0x000040f8:    4788        .G      BLX      r1
        0x000040fa:    bf00        ..      NOP      
        0x000040fc:    e7b4        ..      B        0x4068 ; UARTStdioConfig + 28
    $d
        0x000040fe:    0000        ..      DCW    0
        0x00004100:    000054a0    .T..    DCD    21664
        0x00004104:    00005488    .T..    DCD    21640
        0x00004108:    2000004c    L..     DCD    536870988
        0x0000410c:    20000050    P..     DCD    536870992
        0x00004110:    00005494    .T..    DCD    21652
    $t
    i.UARTStdioIntHandler
    UARTStdioIntHandler
        0x00004114:    b538        8.      PUSH     {r3-r5,lr}
        0x00004116:    f04f7080    O..p    MOV      r0,#0x1000000
        0x0000411a:    6940        @i      LDR      r0,[r0,#0x14]
        0x0000411c:    2101        .!      MOVS     r1,#1
        0x0000411e:    6cc2        .l      LDR      r2,[r0,#0x4c]
        0x00004120:    4842        BH      LDR      r0,[pc,#264] ; [0x422c] = 0x2000004c
        0x00004122:    6800        .h      LDR      r0,[r0,#0]
        0x00004124:    4790        .G      BLX      r2
        0x00004126:    4605        .F      MOV      r5,r0
        0x00004128:    f04f7080    O..p    MOV      r0,#0x1000000
        0x0000412c:    6940        @i      LDR      r0,[r0,#0x14]
        0x0000412e:    4629        )F      MOV      r1,r5
        0x00004130:    6d02        .m      LDR      r2,[r0,#0x50]
        0x00004132:    483e        >H      LDR      r0,[pc,#248] ; [0x422c] = 0x2000004c
        0x00004134:    6800        .h      LDR      r0,[r0,#0]
        0x00004136:    4790        .G      BLX      r2
        0x00004138:    f0050020    .. .    AND      r0,r5,#0x20
        0x0000413c:    b180        ..      CBZ      r0,0x4160 ; UARTStdioIntHandler + 76
        0x0000413e:    483b        ;H      LDR      r0,[pc,#236] ; [0x422c] = 0x2000004c
        0x00004140:    6800        .h      LDR      r0,[r0,#0]
        0x00004142:    f7ffff15    ....    BL       UARTPrimeTransmit ; 0x3f70
        0x00004146:    493a        :I      LDR      r1,[pc,#232] ; [0x4230] = 0x2000003c
        0x00004148:    483a        :H      LDR      r0,[pc,#232] ; [0x4234] = 0x20000040
        0x0000414a:    f7fefa37    ..7.    BL       IsBufferEmpty ; 0x25bc
        0x0000414e:    b138        8.      CBZ      r0,0x4160 ; UARTStdioIntHandler + 76
        0x00004150:    f04f7080    O..p    MOV      r0,#0x1000000
        0x00004154:    6940        @i      LDR      r0,[r0,#0x14]
        0x00004156:    2120         !      MOVS     r1,#0x20
        0x00004158:    6c82        .l      LDR      r2,[r0,#0x48]
        0x0000415a:    4834        4H      LDR      r0,[pc,#208] ; [0x422c] = 0x2000004c
        0x0000415c:    6800        .h      LDR      r0,[r0,#0]
        0x0000415e:    4790        .G      BLX      r2
        0x00004160:    f0050050    ..P.    AND      r0,r5,#0x50
        0x00004164:    2800        .(      CMP      r0,#0
        0x00004166:    d05f        _.      BEQ      0x4228 ; UARTStdioIntHandler + 276
        0x00004168:    e049        I.      B        0x41fe ; UARTStdioIntHandler + 234
        0x0000416a:    f04f7080    O..p    MOV      r0,#0x1000000
        0x0000416e:    6940        @i      LDR      r0,[r0,#0x14]
        0x00004170:    6b41        Ak      LDR      r1,[r0,#0x34]
        0x00004172:    482e        .H      LDR      r0,[pc,#184] ; [0x422c] = 0x2000004c
        0x00004174:    6800        .h      LDR      r0,[r0,#0]
        0x00004176:    4788        .G      BLX      r1
        0x00004178:    4604        .F      MOV      r4,r0
        0x0000417a:    b260        `.      SXTB     r0,r4
        0x0000417c:    9000        ..      STR      r0,[sp,#0]
        0x0000417e:    482e        .H      LDR      r0,[pc,#184] ; [0x4238] = 0x20000038
        0x00004180:    7800        .x      LDRB     r0,[r0,#0]
        0x00004182:    bb18        ..      CBNZ     r0,0x41cc ; UARTStdioIntHandler + 184
        0x00004184:    f89d0000    ....    LDRB     r0,[sp,#0]
        0x00004188:    280a        .(      CMP      r0,#0xa
        0x0000418a:    d106        ..      BNE      0x419a ; UARTStdioIntHandler + 134
        0x0000418c:    482b        +H      LDR      r0,[pc,#172] ; [0x423c] = 0x20000054
        0x0000418e:    7800        .x      LDRB     r0,[r0,#0]
        0x00004190:    b118        ..      CBZ      r0,0x419a ; UARTStdioIntHandler + 134
        0x00004192:    2000        .       MOVS     r0,#0
        0x00004194:    4929        )I      LDR      r1,[pc,#164] ; [0x423c] = 0x20000054
        0x00004196:    7008        .p      STRB     r0,[r1,#0]
        0x00004198:    e031        1.      B        0x41fe ; UARTStdioIntHandler + 234
        0x0000419a:    f89d0000    ....    LDRB     r0,[sp,#0]
        0x0000419e:    280d        .(      CMP      r0,#0xd
        0x000041a0:    d007        ..      BEQ      0x41b2 ; UARTStdioIntHandler + 158
        0x000041a2:    f89d0000    ....    LDRB     r0,[sp,#0]
        0x000041a6:    280a        .(      CMP      r0,#0xa
        0x000041a8:    d003        ..      BEQ      0x41b2 ; UARTStdioIntHandler + 158
        0x000041aa:    f89d0000    ....    LDRB     r0,[sp,#0]
        0x000041ae:    281b        .(      CMP      r0,#0x1b
        0x000041b0:    d10c        ..      BNE      0x41cc ; UARTStdioIntHandler + 184
        0x000041b2:    f89d0000    ....    LDRB     r0,[sp,#0]
        0x000041b6:    280d        .(      CMP      r0,#0xd
        0x000041b8:    d102        ..      BNE      0x41c0 ; UARTStdioIntHandler + 172
        0x000041ba:    2001        .       MOVS     r0,#1
        0x000041bc:    491f        .I      LDR      r1,[pc,#124] ; [0x423c] = 0x20000054
        0x000041be:    7008        .p      STRB     r0,[r1,#0]
        0x000041c0:    200d        .       MOVS     r0,#0xd
        0x000041c2:    9000        ..      STR      r0,[sp,#0]
        0x000041c4:    2101        .!      MOVS     r1,#1
        0x000041c6:    a01e        ..      ADR      r0,{pc}+0x7a ; 0x4240
        0x000041c8:    f000f9dc    ....    BL       UARTwrite ; 0x4584
        0x000041cc:    2280        ."      MOVS     r2,#0x80
        0x000041ce:    491d        .I      LDR      r1,[pc,#116] ; [0x4244] = 0x20000044
        0x000041d0:    481d        .H      LDR      r0,[pc,#116] ; [0x4248] = 0x20000048
        0x000041d2:    f7fef9fd    ....    BL       IsBufferFull ; 0x25d0
        0x000041d6:    b988        ..      CBNZ     r0,0x41fc ; UARTStdioIntHandler + 232
        0x000041d8:    491c        .I      LDR      r1,[pc,#112] ; [0x424c] = 0x20000c6c
        0x000041da:    4a1a        .J      LDR      r2,[pc,#104] ; [0x4244] = 0x20000044
        0x000041dc:    6812        .h      LDR      r2,[r2,#0]
        0x000041de:    548c        .T      STRB     r4,[r1,r2]
        0x000041e0:    4818        .H      LDR      r0,[pc,#96] ; [0x4244] = 0x20000044
        0x000041e2:    6800        .h      LDR      r0,[r0,#0]
        0x000041e4:    1c40        @.      ADDS     r0,r0,#1
        0x000041e6:    f000007f    ....    AND      r0,r0,#0x7f
        0x000041ea:    4916        .I      LDR      r1,[pc,#88] ; [0x4244] = 0x20000044
        0x000041ec:    6008        .`      STR      r0,[r1,#0]
        0x000041ee:    4812        .H      LDR      r0,[pc,#72] ; [0x4238] = 0x20000038
        0x000041f0:    7800        .x      LDRB     r0,[r0,#0]
        0x000041f2:    b918        ..      CBNZ     r0,0x41fc ; UARTStdioIntHandler + 232
        0x000041f4:    2101        .!      MOVS     r1,#1
        0x000041f6:    4668        hF      MOV      r0,sp
        0x000041f8:    f000f9c4    ....    BL       UARTwrite ; 0x4584
        0x000041fc:    bf00        ..      NOP      
        0x000041fe:    f04f7080    O..p    MOV      r0,#0x1000000
        0x00004202:    6940        @i      LDR      r0,[r0,#0x14]
        0x00004204:    6ac1        .j      LDR      r1,[r0,#0x2c]
        0x00004206:    4809        .H      LDR      r0,[pc,#36] ; [0x422c] = 0x2000004c
        0x00004208:    6800        .h      LDR      r0,[r0,#0]
        0x0000420a:    4788        .G      BLX      r1
        0x0000420c:    2800        .(      CMP      r0,#0
        0x0000420e:    d1ac        ..      BNE      0x416a ; UARTStdioIntHandler + 86
        0x00004210:    4806        .H      LDR      r0,[pc,#24] ; [0x422c] = 0x2000004c
        0x00004212:    6800        .h      LDR      r0,[r0,#0]
        0x00004214:    f7fffeac    ....    BL       UARTPrimeTransmit ; 0x3f70
        0x00004218:    f04f7080    O..p    MOV      r0,#0x1000000
        0x0000421c:    6940        @i      LDR      r0,[r0,#0x14]
        0x0000421e:    2120         !      MOVS     r1,#0x20
        0x00004220:    6c42        Bl      LDR      r2,[r0,#0x44]
        0x00004222:    4802        .H      LDR      r0,[pc,#8] ; [0x422c] = 0x2000004c
        0x00004224:    6800        .h      LDR      r0,[r0,#0]
        0x00004226:    4790        .G      BLX      r2
        0x00004228:    bd38        8.      POP      {r3-r5,pc}
    $d
        0x0000422a:    0000        ..      DCW    0
        0x0000422c:    2000004c    L..     DCD    536870988
        0x00004230:    2000003c    <..     DCD    536870972
        0x00004234:    20000040    @..     DCD    536870976
        0x00004238:    20000038    8..     DCD    536870968
        0x0000423c:    20000054    T..     DCD    536870996
        0x00004240:    0000000a    ....    DCD    10
        0x00004244:    20000044    D..     DCD    536870980
        0x00004248:    20000048    H..     DCD    536870984
        0x0000424c:    20000c6c    l..     DCD    536874092
    $t
    i.UARTTxBytesFree
    UARTTxBytesFree
        0x00004250:    b510        ..      PUSH     {r4,lr}
        0x00004252:    f44f6280    O..b    MOV      r2,#0x400
        0x00004256:    4903        .I      LDR      r1,[pc,#12] ; [0x4264] = 0x2000003c
        0x00004258:    4803        .H      LDR      r0,[pc,#12] ; [0x4268] = 0x20000040
        0x0000425a:    f7fdfa10    ....    BL       GetBufferCount ; 0x167e
        0x0000425e:    f5c06080    ...`    RSB      r0,r0,#0x400
        0x00004262:    bd10        ..      POP      {r4,pc}
    $d
        0x00004264:    2000003c    <..     DCD    536870972
        0x00004268:    20000040    @..     DCD    536870976
    $t
    i.UARTTxIntModeGet
    UARTTxIntModeGet
        0x0000426c:    6b00        .k      LDR      r0,[r0,#0x30]
        0x0000426e:    f0000010    ....    AND      r0,r0,#0x10
        0x00004272:    4770        pG      BX       lr
    i.UARTTxIntModeSet
    UARTTxIntModeSet
        0x00004274:    6b02        .k      LDR      r2,[r0,#0x30]
        0x00004276:    f0220210    "...    BIC      r2,r2,#0x10
        0x0000427a:    4311        .C      ORRS     r1,r1,r2
        0x0000427c:    6301        .c      STR      r1,[r0,#0x30]
        0x0000427e:    4770        pG      BX       lr
    i.UARTgetc
    UARTgetc
        0x00004280:    b510        ..      PUSH     {r4,lr}
        0x00004282:    bf00        ..      NOP      
        0x00004284:    4909        .I      LDR      r1,[pc,#36] ; [0x42ac] = 0x20000044
        0x00004286:    480a        .H      LDR      r0,[pc,#40] ; [0x42b0] = 0x20000048
        0x00004288:    f7fef998    ....    BL       IsBufferEmpty ; 0x25bc
        0x0000428c:    2800        .(      CMP      r0,#0
        0x0000428e:    d1f9        ..      BNE      0x4284 ; UARTgetc + 4
        0x00004290:    4808        .H      LDR      r0,[pc,#32] ; [0x42b4] = 0x20000c6c
        0x00004292:    4907        .I      LDR      r1,[pc,#28] ; [0x42b0] = 0x20000048
        0x00004294:    6809        .h      LDR      r1,[r1,#0]
        0x00004296:    5c44        D\      LDRB     r4,[r0,r1]
        0x00004298:    4805        .H      LDR      r0,[pc,#20] ; [0x42b0] = 0x20000048
        0x0000429a:    6800        .h      LDR      r0,[r0,#0]
        0x0000429c:    1c40        @.      ADDS     r0,r0,#1
        0x0000429e:    f000007f    ....    AND      r0,r0,#0x7f
        0x000042a2:    4903        .I      LDR      r1,[pc,#12] ; [0x42b0] = 0x20000048
        0x000042a4:    6008        .`      STR      r0,[r1,#0]
        0x000042a6:    4620         F      MOV      r0,r4
        0x000042a8:    bd10        ..      POP      {r4,pc}
    $d
        0x000042aa:    0000        ..      DCW    0
        0x000042ac:    20000044    D..     DCD    536870980
        0x000042b0:    20000048    H..     DCD    536870984
        0x000042b4:    20000c6c    l..     DCD    536874092
    $t
    i.UARTgets
    UARTgets
        0x000042b8:    e92d41f0    -..A    PUSH     {r4-r8,lr}
        0x000042bc:    4606        .F      MOV      r6,r0
        0x000042be:    460f        .F      MOV      r7,r1
        0x000042c0:    2400        .$      MOVS     r4,#0
        0x000042c2:    1e7f        ..      SUBS     r7,r7,#1
        0x000042c4:    e019        ..      B        0x42fa ; UARTgets + 66
        0x000042c6:    4911        .I      LDR      r1,[pc,#68] ; [0x430c] = 0x20000044
        0x000042c8:    4811        .H      LDR      r0,[pc,#68] ; [0x4310] = 0x20000048
        0x000042ca:    f7fef977    ..w.    BL       IsBufferEmpty ; 0x25bc
        0x000042ce:    b9a0        ..      CBNZ     r0,0x42fa ; UARTgets + 66
        0x000042d0:    4810        .H      LDR      r0,[pc,#64] ; [0x4314] = 0x20000c6c
        0x000042d2:    490f        .I      LDR      r1,[pc,#60] ; [0x4310] = 0x20000048
        0x000042d4:    6809        .h      LDR      r1,[r1,#0]
        0x000042d6:    5c40        @\      LDRB     r0,[r0,r1]
        0x000042d8:    b245        E.      SXTB     r5,r0
        0x000042da:    480d        .H      LDR      r0,[pc,#52] ; [0x4310] = 0x20000048
        0x000042dc:    6800        .h      LDR      r0,[r0,#0]
        0x000042de:    1c40        @.      ADDS     r0,r0,#1
        0x000042e0:    f000007f    ....    AND      r0,r0,#0x7f
        0x000042e4:    490a        .I      LDR      r1,[pc,#40] ; [0x4310] = 0x20000048
        0x000042e6:    6008        .`      STR      r0,[r1,#0]
        0x000042e8:    2d0d        .-      CMP      r5,#0xd
        0x000042ea:    d003        ..      BEQ      0x42f4 ; UARTgets + 60
        0x000042ec:    2d0a        .-      CMP      r5,#0xa
        0x000042ee:    d001        ..      BEQ      0x42f4 ; UARTgets + 60
        0x000042f0:    2d1b        .-      CMP      r5,#0x1b
        0x000042f2:    d100        ..      BNE      0x42f6 ; UARTgets + 62
        0x000042f4:    e002        ..      B        0x42fc ; UARTgets + 68
        0x000042f6:    5535        5U      STRB     r5,[r6,r4]
        0x000042f8:    1c64        d.      ADDS     r4,r4,#1
        0x000042fa:    e7e4        ..      B        0x42c6 ; UARTgets + 14
        0x000042fc:    bf00        ..      NOP      
        0x000042fe:    42bc        .B      CMP      r4,r7
        0x00004300:    d201        ..      BCS      0x4306 ; UARTgets + 78
        0x00004302:    2000        .       MOVS     r0,#0
        0x00004304:    5530        0U      STRB     r0,[r6,r4]
        0x00004306:    4620         F      MOV      r0,r4
        0x00004308:    e8bd81f0    ....    POP      {r4-r8,pc}
    $d
        0x0000430c:    20000044    D..     DCD    536870980
        0x00004310:    20000048    H..     DCD    536870984
        0x00004314:    20000c6c    l..     DCD    536874092
    $t
    i.UARTprintf
    UARTprintf
        0x00004318:    b40f        ..      PUSH     {r0-r3}
        0x0000431a:    b508        ..      PUSH     {r3,lr}
        0x0000431c:    a803        ..      ADD      r0,sp,#0xc
        0x0000431e:    9000        ..      STR      r0,[sp,#0]
        0x00004320:    9900        ..      LDR      r1,[sp,#0]
        0x00004322:    9802        ..      LDR      r0,[sp,#8]
        0x00004324:    f000f806    ....    BL       UARTvprintf ; 0x4334
        0x00004328:    2000        .       MOVS     r0,#0
        0x0000432a:    9000        ..      STR      r0,[sp,#0]
        0x0000432c:    b001        ..      ADD      sp,sp,#4
        0x0000432e:    f85dfb14    ]...    LDR      pc,[sp],#0x14
        0x00004332:    0000        ..      MOVS     r0,r0
    i.UARTvprintf
    UARTvprintf
        0x00004334:    e92d4ff3    -..O    PUSH     {r0,r1,r4-r11,lr}
        0x00004338:    b085        ..      SUB      sp,sp,#0x14
        0x0000433a:    4606        .F      MOV      r6,r0
        0x0000433c:    e112        ..      B        0x4564 ; UARTvprintf + 560
        0x0000433e:    2400        .$      MOVS     r4,#0
        0x00004340:    e000        ..      B        0x4344 ; UARTvprintf + 16
        0x00004342:    1c64        d.      ADDS     r4,r4,#1
        0x00004344:    5d30        0]      LDRB     r0,[r6,r4]
        0x00004346:    2825        %(      CMP      r0,#0x25
        0x00004348:    d002        ..      BEQ      0x4350 ; UARTvprintf + 28
        0x0000434a:    5d30        0]      LDRB     r0,[r6,r4]
        0x0000434c:    2800        .(      CMP      r0,#0
        0x0000434e:    d1f8        ..      BNE      0x4342 ; UARTvprintf + 14
        0x00004350:    4621        !F      MOV      r1,r4
        0x00004352:    4630        0F      MOV      r0,r6
        0x00004354:    f000f916    ....    BL       UARTwrite ; 0x4584
        0x00004358:    4426        &D      ADD      r6,r6,r4
        0x0000435a:    7830        0x      LDRB     r0,[r6,#0]
        0x0000435c:    2825        %(      CMP      r0,#0x25
        0x0000435e:    d1ed        ..      BNE      0x433c ; UARTvprintf + 8
        0x00004360:    1c76        v.      ADDS     r6,r6,#1
        0x00004362:    2500        .%      MOVS     r5,#0
        0x00004364:    f04f0b20    O. .    MOV      r11,#0x20
        0x00004368:    bf00        ..      NOP      
        0x0000436a:    f8161b01    ....    LDRB     r1,[r6],#1
        0x0000436e:    2938        8)      CMP      r1,#0x38
        0x00004370:    d032        2.      BEQ      0x43d8 ; UARTvprintf + 164
        0x00004372:    dc14        ..      BGT      0x439e ; UARTvprintf + 106
        0x00004374:    2933        3)      CMP      r1,#0x33
        0x00004376:    d02a        *.      BEQ      0x43ce ; UARTvprintf + 154
        0x00004378:    dc08        ..      BGT      0x438c ; UARTvprintf + 88
        0x0000437a:    2925        %)      CMP      r1,#0x25
        0x0000437c:    d06f        o.      BEQ      0x445e ; UARTvprintf + 298
        0x0000437e:    2930        0)      CMP      r1,#0x30
        0x00004380:    d022        ".      BEQ      0x43c8 ; UARTvprintf + 148
        0x00004382:    2931        1)      CMP      r1,#0x31
        0x00004384:    d021        !.      BEQ      0x43ca ; UARTvprintf + 150
        0x00004386:    2932        2)      CMP      r1,#0x32
        0x00004388:    d16a        j.      BNE      0x4460 ; UARTvprintf + 300
        0x0000438a:    e01f        ..      B        0x43cc ; UARTvprintf + 152
        0x0000438c:    2934        4)      CMP      r1,#0x34
        0x0000438e:    d01f        ..      BEQ      0x43d0 ; UARTvprintf + 156
        0x00004390:    2935        5)      CMP      r1,#0x35
        0x00004392:    d01e        ..      BEQ      0x43d2 ; UARTvprintf + 158
        0x00004394:    2936        6)      CMP      r1,#0x36
        0x00004396:    d01d        ..      BEQ      0x43d4 ; UARTvprintf + 160
        0x00004398:    2937        7)      CMP      r1,#0x37
        0x0000439a:    d1f5        ..      BNE      0x4388 ; UARTvprintf + 84
        0x0000439c:    e01b        ..      B        0x43d6 ; UARTvprintf + 162
        0x0000439e:    2969        i)      CMP      r1,#0x69
        0x000043a0:    d035        5.      BEQ      0x440e ; UARTvprintf + 218
        0x000043a2:    dc08        ..      BGT      0x43b6 ; UARTvprintf + 130
        0x000043a4:    2939        9)      CMP      r1,#0x39
        0x000043a6:    d018        ..      BEQ      0x43da ; UARTvprintf + 166
        0x000043a8:    2958        X)      CMP      r1,#0x58
        0x000043aa:    d072        r.      BEQ      0x4492 ; UARTvprintf + 350
        0x000043ac:    2963        c)      CMP      r1,#0x63
        0x000043ae:    d022        ".      BEQ      0x43f6 ; UARTvprintf + 194
        0x000043b0:    2964        d)      CMP      r1,#0x64
        0x000043b2:    d1e9        ..      BNE      0x4388 ; UARTvprintf + 84
        0x000043b4:    e02a        *.      B        0x440c ; UARTvprintf + 216
        0x000043b6:    2970        p)      CMP      r1,#0x70
        0x000043b8:    d06c        l.      BEQ      0x4494 ; UARTvprintf + 352
        0x000043ba:    2973        s)      CMP      r1,#0x73
        0x000043bc:    d03c        <.      BEQ      0x4438 ; UARTvprintf + 260
        0x000043be:    2975        u)      CMP      r1,#0x75
        0x000043c0:    d058        X.      BEQ      0x4474 ; UARTvprintf + 320
        0x000043c2:    2978        x)      CMP      r1,#0x78
        0x000043c4:    d1e0        ..      BNE      0x4388 ; UARTvprintf + 84
        0x000043c6:    e063        c.      B        0x4490 ; UARTvprintf + 348
        0x000043c8:    bf00        ..      NOP      
        0x000043ca:    bf00        ..      NOP      
        0x000043cc:    bf00        ..      NOP      
        0x000043ce:    bf00        ..      NOP      
        0x000043d0:    bf00        ..      NOP      
        0x000043d2:    bf00        ..      NOP      
        0x000043d4:    bf00        ..      NOP      
        0x000043d6:    bf00        ..      NOP      
        0x000043d8:    bf00        ..      NOP      
        0x000043da:    f8160c01    ....    LDRB     r0,[r6,#-1]
        0x000043de:    2830        0(      CMP      r0,#0x30
        0x000043e0:    d101        ..      BNE      0x43e6 ; UARTvprintf + 178
        0x000043e2:    b905        ..      CBNZ     r5,0x43e6 ; UARTvprintf + 178
        0x000043e4:    4683        .F      MOV      r11,r0
        0x000043e6:    eb050085    ....    ADD      r0,r5,r5,LSL #2
        0x000043ea:    0045        E.      LSLS     r5,r0,#1
        0x000043ec:    f8160c01    ....    LDRB     r0,[r6,#-1]
        0x000043f0:    3830        08      SUBS     r0,r0,#0x30
        0x000043f2:    4405        .D      ADD      r5,r5,r0
        0x000043f4:    e7b9        ..      B        0x436a ; UARTvprintf + 54
        0x000043f6:    9806        ..      LDR      r0,[sp,#0x18]
        0x000043f8:    6800        .h      LDR      r0,[r0,#0]
        0x000043fa:    9004        ..      STR      r0,[sp,#0x10]
        0x000043fc:    9806        ..      LDR      r0,[sp,#0x18]
        0x000043fe:    1d00        ..      ADDS     r0,r0,#4
        0x00004400:    9006        ..      STR      r0,[sp,#0x18]
        0x00004402:    2101        .!      MOVS     r1,#1
        0x00004404:    a804        ..      ADD      r0,sp,#0x10
        0x00004406:    f000f8bd    ....    BL       UARTwrite ; 0x4584
        0x0000440a:    e0aa        ..      B        0x4562 ; UARTvprintf + 558
        0x0000440c:    bf00        ..      NOP      
        0x0000440e:    9806        ..      LDR      r0,[sp,#0x18]
        0x00004410:    6800        .h      LDR      r0,[r0,#0]
        0x00004412:    9004        ..      STR      r0,[sp,#0x10]
        0x00004414:    9806        ..      LDR      r0,[sp,#0x18]
        0x00004416:    1d00        ..      ADDS     r0,r0,#4
        0x00004418:    9006        ..      STR      r0,[sp,#0x18]
        0x0000441a:    f04f0800    O...    MOV      r8,#0
        0x0000441e:    9804        ..      LDR      r0,[sp,#0x10]
        0x00004420:    2800        .(      CMP      r0,#0
        0x00004422:    da05        ..      BGE      0x4430 ; UARTvprintf + 252
        0x00004424:    9804        ..      LDR      r0,[sp,#0x10]
        0x00004426:    4240        @B      RSBS     r0,r0,#0
        0x00004428:    9004        ..      STR      r0,[sp,#0x10]
        0x0000442a:    f04f0901    O...    MOV      r9,#1
        0x0000442e:    e001        ..      B        0x4434 ; UARTvprintf + 256
        0x00004430:    f04f0900    O...    MOV      r9,#0
        0x00004434:    270a        .'      MOVS     r7,#0xa
        0x00004436:    e039        9.      B        0x44ac ; UARTvprintf + 376
        0x00004438:    9806        ..      LDR      r0,[sp,#0x18]
        0x0000443a:    f850ab04    P...    LDR      r10,[r0],#4
        0x0000443e:    9006        ..      STR      r0,[sp,#0x18]
        0x00004440:    2400        .$      MOVS     r4,#0
        0x00004442:    e000        ..      B        0x4446 ; UARTvprintf + 274
        0x00004444:    1c64        d.      ADDS     r4,r4,#1
        0x00004446:    f81a0004    ....    LDRB     r0,[r10,r4]
        0x0000444a:    2800        .(      CMP      r0,#0
        0x0000444c:    d1fa        ..      BNE      0x4444 ; UARTvprintf + 272
        0x0000444e:    4621        !F      MOV      r1,r4
        0x00004450:    4650        PF      MOV      r0,r10
        0x00004452:    f000f897    ....    BL       UARTwrite ; 0x4584
        0x00004456:    42a5        .B      CMP      r5,r4
        0x00004458:    d90b        ..      BLS      0x4472 ; UARTvprintf + 318
        0x0000445a:    1b2d        -.      SUBS     r5,r5,r4
        0x0000445c:    e005        ..      B        0x446a ; UARTvprintf + 310
        0x0000445e:    e076        v.      B        0x454e ; UARTvprintf + 538
        0x00004460:    e07a        z.      B        0x4558 ; UARTvprintf + 548
        0x00004462:    2101        .!      MOVS     r1,#1
        0x00004464:    a043        C.      ADR      r0,{pc}+0x110 ; 0x4574
        0x00004466:    f000f88d    ....    BL       UARTwrite ; 0x4584
        0x0000446a:    0028        (.      MOVS     r0,r5
        0x0000446c:    f1a50501    ....    SUB      r5,r5,#1
        0x00004470:    d1f7        ..      BNE      0x4462 ; UARTvprintf + 302
        0x00004472:    e076        v.      B        0x4562 ; UARTvprintf + 558
        0x00004474:    9806        ..      LDR      r0,[sp,#0x18]
        0x00004476:    6800        .h      LDR      r0,[r0,#0]
        0x00004478:    9004        ..      STR      r0,[sp,#0x10]
        0x0000447a:    9806        ..      LDR      r0,[sp,#0x18]
        0x0000447c:    1d00        ..      ADDS     r0,r0,#4
        0x0000447e:    9006        ..      STR      r0,[sp,#0x18]
        0x00004480:    f04f0800    O...    MOV      r8,#0
        0x00004484:    270a        .'      MOVS     r7,#0xa
        0x00004486:    f04f0900    O...    MOV      r9,#0
        0x0000448a:    e00f        ..      B        0x44ac ; UARTvprintf + 376
        0x0000448c:    e001        ..      B        0x4492 ; UARTvprintf + 350
        0x0000448e:    e001        ..      B        0x4494 ; UARTvprintf + 352
        0x00004490:    bf00        ..      NOP      
        0x00004492:    bf00        ..      NOP      
        0x00004494:    9806        ..      LDR      r0,[sp,#0x18]
        0x00004496:    6800        .h      LDR      r0,[r0,#0]
        0x00004498:    9004        ..      STR      r0,[sp,#0x10]
        0x0000449a:    9806        ..      LDR      r0,[sp,#0x18]
        0x0000449c:    1d00        ..      ADDS     r0,r0,#4
        0x0000449e:    9006        ..      STR      r0,[sp,#0x18]
        0x000044a0:    f04f0800    O...    MOV      r8,#0
        0x000044a4:    2710        .'      MOVS     r7,#0x10
        0x000044a6:    f04f0900    O...    MOV      r9,#0
        0x000044aa:    bf00        ..      NOP      
        0x000044ac:    2401        .$      MOVS     r4,#1
        0x000044ae:    e001        ..      B        0x44b4 ; UARTvprintf + 384
        0x000044b0:    437c        |C      MULS     r4,r7,r4
        0x000044b2:    1e6d        m.      SUBS     r5,r5,#1
        0x000044b4:    fb04f007    ....    MUL      r0,r4,r7
        0x000044b8:    9904        ..      LDR      r1,[sp,#0x10]
        0x000044ba:    4288        .B      CMP      r0,r1
        0x000044bc:    d805        ..      BHI      0x44ca ; UARTvprintf + 406
        0x000044be:    fb04f007    ....    MUL      r0,r4,r7
        0x000044c2:    fbb0f0f7    ....    UDIV     r0,r0,r7
        0x000044c6:    42a0        .B      CMP      r0,r4
        0x000044c8:    d0f2        ..      BEQ      0x44b0 ; UARTvprintf + 380
        0x000044ca:    f1b90f00    ....    CMP      r9,#0
        0x000044ce:    d000        ..      BEQ      0x44d2 ; UARTvprintf + 414
        0x000044d0:    1e6d        m.      SUBS     r5,r5,#1
        0x000044d2:    f1b90f00    ....    CMP      r9,#0
        0x000044d6:    d00a        ..      BEQ      0x44ee ; UARTvprintf + 442
        0x000044d8:    f1bb0f30    ..0.    CMP      r11,#0x30
        0x000044dc:    d107        ..      BNE      0x44ee ; UARTvprintf + 442
        0x000044de:    222d        -"      MOVS     r2,#0x2d
        0x000044e0:    4640        @F      MOV      r0,r8
        0x000044e2:    f1080801    ....    ADD      r8,r8,#1
        0x000044e6:    f80d2000    ...     STRB     r2,[sp,r0]
        0x000044ea:    f04f0900    O...    MOV      r9,#0
        0x000044ee:    2d01        .-      CMP      r5,#1
        0x000044f0:    d90b        ..      BLS      0x450a ; UARTvprintf + 470
        0x000044f2:    2d10        .-      CMP      r5,#0x10
        0x000044f4:    d209        ..      BCS      0x450a ; UARTvprintf + 470
        0x000044f6:    1e6d        m.      SUBS     r5,r5,#1
        0x000044f8:    e005        ..      B        0x4506 ; UARTvprintf + 466
        0x000044fa:    4640        @F      MOV      r0,r8
        0x000044fc:    f1080801    ....    ADD      r8,r8,#1
        0x00004500:    f80db000    ....    STRB     r11,[sp,r0]
        0x00004504:    1e6d        m.      SUBS     r5,r5,#1
        0x00004506:    2d00        .-      CMP      r5,#0
        0x00004508:    d1f7        ..      BNE      0x44fa ; UARTvprintf + 454
        0x0000450a:    f1b90f00    ....    CMP      r9,#0
        0x0000450e:    d005        ..      BEQ      0x451c ; UARTvprintf + 488
        0x00004510:    222d        -"      MOVS     r2,#0x2d
        0x00004512:    4640        @F      MOV      r0,r8
        0x00004514:    f1080801    ....    ADD      r8,r8,#1
        0x00004518:    f80d2000    ...     STRB     r2,[sp,r0]
        0x0000451c:    e010        ..      B        0x4540 ; UARTvprintf + 524
        0x0000451e:    9804        ..      LDR      r0,[sp,#0x10]
        0x00004520:    fbb0f0f4    ....    UDIV     r0,r0,r4
        0x00004524:    fbb0f1f7    ....    UDIV     r1,r0,r7
        0x00004528:    fb070011    ....    MLS      r0,r7,r1,r0
        0x0000452c:    4912        .I      LDR      r1,[pc,#72] ; [0x4578] = 0x5484
        0x0000452e:    6809        .h      LDR      r1,[r1,#0]
        0x00004530:    5c0a        .\      LDRB     r2,[r1,r0]
        0x00004532:    4640        @F      MOV      r0,r8
        0x00004534:    f1080801    ....    ADD      r8,r8,#1
        0x00004538:    f80d2000    ...     STRB     r2,[sp,r0]
        0x0000453c:    fbb4f4f7    ....    UDIV     r4,r4,r7
        0x00004540:    2c00        .,      CMP      r4,#0
        0x00004542:    d1ec        ..      BNE      0x451e ; UARTvprintf + 490
        0x00004544:    4641        AF      MOV      r1,r8
        0x00004546:    4668        hF      MOV      r0,sp
        0x00004548:    f000f81c    ....    BL       UARTwrite ; 0x4584
        0x0000454c:    e009        ..      B        0x4562 ; UARTvprintf + 558
        0x0000454e:    1e70        p.      SUBS     r0,r6,#1
        0x00004550:    2101        .!      MOVS     r1,#1
        0x00004552:    f000f817    ....    BL       UARTwrite ; 0x4584
        0x00004556:    e004        ..      B        0x4562 ; UARTvprintf + 558
        0x00004558:    2105        .!      MOVS     r1,#5
        0x0000455a:    a008        ..      ADR      r0,{pc}+0x22 ; 0x457c
        0x0000455c:    f000f812    ....    BL       UARTwrite ; 0x4584
        0x00004560:    bf00        ..      NOP      
        0x00004562:    bf00        ..      NOP      
        0x00004564:    7830        0x      LDRB     r0,[r6,#0]
        0x00004566:    2800        .(      CMP      r0,#0
        0x00004568:    f47faee9    ....    BNE      0x433e ; UARTvprintf + 10
        0x0000456c:    b007        ..      ADD      sp,sp,#0x1c
        0x0000456e:    e8bd8ff0    ....    POP      {r4-r11,pc}
    $d
        0x00004572:    0000        ..      DCW    0
        0x00004574:    00000020     ...    DCD    32
        0x00004578:    00005484    .T..    DCD    21636
        0x0000457c:    4f525245    ERRO    DCD    1330795077
        0x00004580:    00000052    R...    DCD    82
    $t
    i.UARTwrite
    UARTwrite
        0x00004584:    b570        p.      PUSH     {r4-r6,lr}
        0x00004586:    4605        .F      MOV      r5,r0
        0x00004588:    460e        .F      MOV      r6,r1
        0x0000458a:    2400        .$      MOVS     r4,#0
        0x0000458c:    e02d        -.      B        0x45ea ; UARTwrite + 102
        0x0000458e:    5d28        (]      LDRB     r0,[r5,r4]
        0x00004590:    280a        .(      CMP      r0,#0xa
        0x00004592:    d114        ..      BNE      0x45be ; UARTwrite + 58
        0x00004594:    f44f6280    O..b    MOV      r2,#0x400
        0x00004598:    491f        .I      LDR      r1,[pc,#124] ; [0x4618] = 0x2000003c
        0x0000459a:    4820         H      LDR      r0,[pc,#128] ; [0x461c] = 0x20000040
        0x0000459c:    f7fef818    ....    BL       IsBufferFull ; 0x25d0
        0x000045a0:    b960        `.      CBNZ     r0,0x45bc ; UARTwrite + 56
        0x000045a2:    200d        .       MOVS     r0,#0xd
        0x000045a4:    491e        .I      LDR      r1,[pc,#120] ; [0x4620] = 0x2000086c
        0x000045a6:    4a1c        .J      LDR      r2,[pc,#112] ; [0x4618] = 0x2000003c
        0x000045a8:    6812        .h      LDR      r2,[r2,#0]
        0x000045aa:    5488        .T      STRB     r0,[r1,r2]
        0x000045ac:    481a        .H      LDR      r0,[pc,#104] ; [0x4618] = 0x2000003c
        0x000045ae:    6800        .h      LDR      r0,[r0,#0]
        0x000045b0:    1c40        @.      ADDS     r0,r0,#1
        0x000045b2:    f3c00009    ....    UBFX     r0,r0,#0,#10
        0x000045b6:    4918        .I      LDR      r1,[pc,#96] ; [0x4618] = 0x2000003c
        0x000045b8:    6008        .`      STR      r0,[r1,#0]
        0x000045ba:    e000        ..      B        0x45be ; UARTwrite + 58
        0x000045bc:    e017        ..      B        0x45ee ; UARTwrite + 106
        0x000045be:    f44f6280    O..b    MOV      r2,#0x400
        0x000045c2:    4915        .I      LDR      r1,[pc,#84] ; [0x4618] = 0x2000003c
        0x000045c4:    4815        .H      LDR      r0,[pc,#84] ; [0x461c] = 0x20000040
        0x000045c6:    f7fef803    ....    BL       IsBufferFull ; 0x25d0
        0x000045ca:    b960        `.      CBNZ     r0,0x45e6 ; UARTwrite + 98
        0x000045cc:    5d28        (]      LDRB     r0,[r5,r4]
        0x000045ce:    4914        .I      LDR      r1,[pc,#80] ; [0x4620] = 0x2000086c
        0x000045d0:    4a11        .J      LDR      r2,[pc,#68] ; [0x4618] = 0x2000003c
        0x000045d2:    6812        .h      LDR      r2,[r2,#0]
        0x000045d4:    5488        .T      STRB     r0,[r1,r2]
        0x000045d6:    4810        .H      LDR      r0,[pc,#64] ; [0x4618] = 0x2000003c
        0x000045d8:    6800        .h      LDR      r0,[r0,#0]
        0x000045da:    1c40        @.      ADDS     r0,r0,#1
        0x000045dc:    f3c00009    ....    UBFX     r0,r0,#0,#10
        0x000045e0:    490d        .I      LDR      r1,[pc,#52] ; [0x4618] = 0x2000003c
        0x000045e2:    6008        .`      STR      r0,[r1,#0]
        0x000045e4:    e000        ..      B        0x45e8 ; UARTwrite + 100
        0x000045e6:    e002        ..      B        0x45ee ; UARTwrite + 106
        0x000045e8:    1c64        d.      ADDS     r4,r4,#1
        0x000045ea:    42b4        .B      CMP      r4,r6
        0x000045ec:    d3cf        ..      BCC      0x458e ; UARTwrite + 10
        0x000045ee:    bf00        ..      NOP      
        0x000045f0:    4909        .I      LDR      r1,[pc,#36] ; [0x4618] = 0x2000003c
        0x000045f2:    480a        .H      LDR      r0,[pc,#40] ; [0x461c] = 0x20000040
        0x000045f4:    f7fdffe2    ....    BL       IsBufferEmpty ; 0x25bc
        0x000045f8:    b958        X.      CBNZ     r0,0x4612 ; UARTwrite + 142
        0x000045fa:    480a        .H      LDR      r0,[pc,#40] ; [0x4624] = 0x2000004c
        0x000045fc:    6800        .h      LDR      r0,[r0,#0]
        0x000045fe:    f7fffcb7    ....    BL       UARTPrimeTransmit ; 0x3f70
        0x00004602:    f04f7080    O..p    MOV      r0,#0x1000000
        0x00004606:    6940        @i      LDR      r0,[r0,#0x14]
        0x00004608:    2120         !      MOVS     r1,#0x20
        0x0000460a:    6c42        Bl      LDR      r2,[r0,#0x44]
        0x0000460c:    4805        .H      LDR      r0,[pc,#20] ; [0x4624] = 0x2000004c
        0x0000460e:    6800        .h      LDR      r0,[r0,#0]
        0x00004610:    4790        .G      BLX      r2
        0x00004612:    4620         F      MOV      r0,r4
        0x00004614:    bd70        p.      POP      {r4-r6,pc}
    $d
        0x00004616:    0000        ..      DCW    0
        0x00004618:    2000003c    <..     DCD    536870972
        0x0000461c:    20000040    @..     DCD    536870976
        0x00004620:    2000086c    l..     DCD    536873068
        0x00004624:    2000004c    L..     DCD    536870988
    $t
    i.VectorAdd
    VectorAdd
        0x00004628:    ed910a00    ....    VLDR     s0,[r1,#0]
        0x0000462c:    edd20a00    ....    VLDR     s1,[r2,#0]
        0x00004630:    ee300a20    0. .    VADD.F32 s0,s0,s1
        0x00004634:    ed800a00    ....    VSTR     s0,[r0,#0]
        0x00004638:    ed910a01    ....    VLDR     s0,[r1,#4]
        0x0000463c:    edd20a01    ....    VLDR     s1,[r2,#4]
        0x00004640:    ee300a20    0. .    VADD.F32 s0,s0,s1
        0x00004644:    ed800a01    ....    VSTR     s0,[r0,#4]
        0x00004648:    ed910a02    ....    VLDR     s0,[r1,#8]
        0x0000464c:    edd20a02    ....    VLDR     s1,[r2,#8]
        0x00004650:    ee300a20    0. .    VADD.F32 s0,s0,s1
        0x00004654:    ed800a02    ....    VSTR     s0,[r0,#8]
        0x00004658:    4770        pG      BX       lr
    i.VectorCrossProduct
    VectorCrossProduct
        0x0000465a:    ed910a01    ....    VLDR     s0,[r1,#4]
        0x0000465e:    edd20a02    ....    VLDR     s1,[r2,#8]
        0x00004662:    ed921a01    ....    VLDR     s2,[r2,#4]
        0x00004666:    ee200a20     . .    VMUL.F32 s0,s0,s1
        0x0000466a:    edd10a02    ....    VLDR     s1,[r1,#8]
        0x0000466e:    ee000ac1    ....    VMLS.F32 s0,s1,s2
        0x00004672:    ed800a00    ....    VSTR     s0,[r0,#0]
        0x00004676:    ed910a02    ....    VLDR     s0,[r1,#8]
        0x0000467a:    edd20a00    ....    VLDR     s1,[r2,#0]
        0x0000467e:    ed921a02    ....    VLDR     s2,[r2,#8]
        0x00004682:    ee200a20     . .    VMUL.F32 s0,s0,s1
        0x00004686:    edd10a00    ....    VLDR     s1,[r1,#0]
        0x0000468a:    ee000ac1    ....    VMLS.F32 s0,s1,s2
        0x0000468e:    ed800a01    ....    VSTR     s0,[r0,#4]
        0x00004692:    ed910a00    ....    VLDR     s0,[r1,#0]
        0x00004696:    edd20a01    ....    VLDR     s1,[r2,#4]
        0x0000469a:    ed921a00    ....    VLDR     s2,[r2,#0]
        0x0000469e:    ee200a20     . .    VMUL.F32 s0,s0,s1
        0x000046a2:    edd10a01    ....    VLDR     s1,[r1,#4]
        0x000046a6:    ee000ac1    ....    VMLS.F32 s0,s1,s2
        0x000046aa:    ed800a02    ....    VSTR     s0,[r0,#8]
        0x000046ae:    4770        pG      BX       lr
    i.VectorDotProduct
    VectorDotProduct
        0x000046b0:    ed900a00    ....    VLDR     s0,[r0,#0]
        0x000046b4:    edd10a00    ....    VLDR     s1,[r1,#0]
        0x000046b8:    ed911a01    ....    VLDR     s2,[r1,#4]
        0x000046bc:    ee200a20     . .    VMUL.F32 s0,s0,s1
        0x000046c0:    edd00a01    ....    VLDR     s1,[r0,#4]
        0x000046c4:    ee000a81    ....    VMLA.F32 s0,s1,s2
        0x000046c8:    edd00a02    ....    VLDR     s1,[r0,#8]
        0x000046cc:    ed911a02    ....    VLDR     s2,[r1,#8]
        0x000046d0:    ee000a81    ....    VMLA.F32 s0,s1,s2
        0x000046d4:    4770        pG      BX       lr
    i.VectorScale
    VectorScale
        0x000046d6:    edd10a00    ....    VLDR     s1,[r1,#0]
        0x000046da:    ee600a80    `...    VMUL.F32 s1,s1,s0
        0x000046de:    edc00a00    ....    VSTR     s1,[r0,#0]
        0x000046e2:    edd10a01    ....    VLDR     s1,[r1,#4]
        0x000046e6:    ee600a80    `...    VMUL.F32 s1,s1,s0
        0x000046ea:    edc00a01    ....    VSTR     s1,[r0,#4]
        0x000046ee:    edd10a02    ....    VLDR     s1,[r1,#8]
        0x000046f2:    ee200a80     ...    VMUL.F32 s0,s1,s0
        0x000046f6:    ed800a02    ....    VSTR     s0,[r0,#8]
        0x000046fa:    4770        pG      BX       lr
    i._IntDefaultHandler
    _IntDefaultHandler
        0x000046fc:    e7fe        ..      B        _IntDefaultHandler ; 0x46fc
    i.__ARM_fpclassifyf
    __ARM_fpclassifyf
        0x000046fe:    0041        A.      LSLS     r1,r0,#1
        0x00004700:    0208        ..      LSLS     r0,r1,#8
        0x00004702:    bf18        ..      IT       NE
        0x00004704:    2004        .       MOVNE    r0,#4
        0x00004706:    0e0a        ..      LSRS     r2,r1,#24
        0x00004708:    bf18        ..      IT       NE
        0x0000470a:    f0400001    @...    ORRNE    r0,r0,#1
        0x0000470e:    f04f427f    O..B    MOV      r2,#0xff000000
        0x00004712:    ea320101    2...    BICS     r1,r2,r1
        0x00004716:    bf08        ..      IT       EQ
        0x00004718:    f0400002    @...    ORREQ    r0,r0,#2
        0x0000471c:    2801        .(      CMP      r0,#1
        0x0000471e:    bf08        ..      IT       EQ
        0x00004720:    2005        .       MOVEQ    r0,#5
        0x00004722:    4770        pG      BX       lr
    i.__hardfp_asinf
    __hardfp_asinf
        0x00004724:    b510        ..      PUSH     {r4,lr}
        0x00004726:    f04f400e    O..@    MOV      r0,#0x8e000000
        0x0000472a:    ed2d8b02    -...    VPUSH    {d8}
        0x0000472e:    eeb08a40    ..@.    VMOV.F32 s16,s0
        0x00004732:    ee184a10    ...J    VMOV     r4,s16
        0x00004736:    eb000044    ..D.    ADD      r0,r0,r4,LSL #1
        0x0000473a:    f1b06f50    ..Po    CMP      r0,#0xd000000
        0x0000473e:    d84a        J.      BHI      0x47d6 ; __hardfp_asinf + 178
        0x00004740:    f04f40fc    O..@    MOV      r0,#0x7e000000
        0x00004744:    ebb00f44    ..D.    CMP      r0,r4,LSL #1
        0x00004748:    d222        ".      BCS      0x4790 ; __hardfp_asinf + 108
        0x0000474a:    eeb00ac8    ....    VABS.F32 s0,s16
        0x0000474e:    eef70a00    ....    VMOV.F32 s1,#1.00000000
        0x00004752:    ee300ac0    0...    VSUB.F32 s0,s1,s0
        0x00004756:    eef60a00    ....    VMOV.F32 s1,#0.50000000
        0x0000475a:    ee608a20    `. .    VMUL.F32 s17,s0,s1
        0x0000475e:    ee180a90    ....    VMOV     r0,s17
        0x00004762:    f000fe6f    ..o.    BL       sqrtf ; 0x5444
        0x00004766:    ee010a10    ....    VMOV     s2,r0
        0x0000476a:    f0144f00    ...O    TST      r4,#0x80000000
        0x0000476e:    bf1d        ..      ITTTE    NE
        0x00004770:    eddf0a2d    ..-.    VLDRNE   s1,[pc,#180] ; [0x4828] = 0xbfc90000
        0x00004774:    ed9f0a2d    ..-.    VLDRNE   s0,[pc,#180] ; [0x482c] = 0xb9fdaa22
        0x00004778:    eeb11a41    ..A.    VNEGNE.F32 s2,s2
        0x0000477c:    eddf0a2c    ..,.    VLDREQ   s1,[pc,#176] ; [0x4830] = 0x3fc90000
        0x00004780:    bf08        ..      IT       EQ
        0x00004782:    ed9f0a2c    ..,.    VLDREQ   s0,[pc,#176] ; [0x4834] = 0x39fdaa22
        0x00004786:    eef81a00    ....    VMOV.F32 s3,#-2.00000000
        0x0000478a:    ee218a21    !.!.    VMUL.F32 s16,s2,s3
        0x0000478e:    e005        ..      B        0x479c ; __hardfp_asinf + 120
        0x00004790:    eddf0a29    ..).    VLDR     s1,[pc,#164] ; [0x4838] = 0
        0x00004794:    ee688a08    h...    VMUL.F32 s17,s16,s16
        0x00004798:    eeb00a60    ..`.    VMOV.F32 s0,s1
        0x0000479c:    ed9f1a27    ..'.    VLDR     s2,[pc,#156] ; [0x483c] = 0x3d1cfe24
        0x000047a0:    eddf1a27    ..'.    VLDR     s3,[pc,#156] ; [0x4840] = 0x3cd88ac7
        0x000047a4:    ee300a08    0...    VADD.F32 s0,s0,s16
        0x000047a8:    ee481a81    H...    VMLA.F32 s3,s17,s2
        0x000047ac:    ed9f1a25    ..%.    VLDR     s2,[pc,#148] ; [0x4844] = 0x3d38671e
        0x000047b0:    ee081aa1    ....    VMLA.F32 s2,s17,s3
        0x000047b4:    eddf1a24    ..$.    VLDR     s3,[pc,#144] ; [0x4848] = 0x3d99931b
        0x000047b8:    ee481a81    H...    VMLA.F32 s3,s17,s2
        0x000047bc:    ed9f1a23    ..#.    VLDR     s2,[pc,#140] ; [0x484c] = 0x3e2aaaaf
        0x000047c0:    ee081aa1    ....    VMLA.F32 s2,s17,s3
        0x000047c4:    ee681a28    h.(.    VMUL.F32 s3,s16,s17
        0x000047c8:    ecbd8b02    ....    VPOP     {d8}
        0x000047cc:    ee010a81    ....    VMLA.F32 s0,s3,s2
        0x000047d0:    ee300a20    0. .    VADD.F32 s0,s0,s1
        0x000047d4:    bd10        ..      POP      {r4,pc}
        0x000047d6:    f04f40e4    O..@    MOV      r0,#0x72000000
        0x000047da:    ebb00f44    ..D.    CMP      r0,r4,LSL #1
        0x000047de:    d90c        ..      BLS      0x47fa ; __hardfp_asinf + 214
        0x000047e0:    ee180a10    ....    VMOV     r0,s16
        0x000047e4:    f7ffff8b    ....    BL       __ARM_fpclassifyf ; 0x46fe
        0x000047e8:    2804        .(      CMP      r0,#4
        0x000047ea:    bf08        ..      IT       EQ
        0x000047ec:    f000f984    ....    BLEQ     __mathlib_flt_underflow ; 0x4af8
        0x000047f0:    eeb00a48    ..H.    VMOV.F32 s0,s16
        0x000047f4:    ecbd8b02    ....    VPOP     {d8}
        0x000047f8:    bd10        ..      POP      {r4,pc}
        0x000047fa:    f04f407f    O..@    MOV      r0,#0xff000000
        0x000047fe:    ebb00f44    ..D.    CMP      r0,r4,LSL #1
        0x00004802:    d207        ..      BCS      0x4814 ; __hardfp_asinf + 240
        0x00004804:    eeb00a48    ..H.    VMOV.F32 s0,s16
        0x00004808:    ecbd8b02    ....    VPOP     {d8}
        0x0000480c:    e8bd4010    ...@    POP      {r4,lr}
        0x00004810:    f000b963    ..c.    B.W      __mathlib_flt_infnan ; 0x4ada
        0x00004814:    2001        .       MOVS     r0,#1
        0x00004816:    f000f987    ....    BL       __set_errno ; 0x4b28
        0x0000481a:    ecbd8b02    ....    VPOP     {d8}
        0x0000481e:    e8bd4010    ...@    POP      {r4,lr}
        0x00004822:    f000b961    ..a.    B.W      __mathlib_flt_invalid ; 0x4ae8
    $d
        0x00004826:    0000        ..      DCW    0
        0x00004828:    bfc90000    ....    DCD    3217620992
        0x0000482c:    b9fdaa22    "...    DCD    3120409122
        0x00004830:    3fc90000    ...?    DCD    1070137344
        0x00004834:    39fdaa22    "..9    DCD    972925474
        0x00004838:    00000000    ....    DCD    0
        0x0000483c:    3d1cfe24    $..=    DCD    1025310244
        0x00004840:    3cd88ac7    ...<    DCD    1020824263
        0x00004844:    3d38671e    .g8=    DCD    1027106590
        0x00004848:    3d99931b    ...=    DCD    1033474843
        0x0000484c:    3e2aaaaf    ..*>    DCD    1042983599
    $t
    i.__hardfp_atan2f
    __hardfp_atan2f
        0x00004850:    ee100a10    ....    VMOV     r0,s0
        0x00004854:    b510        ..      PUSH     {r4,lr}
        0x00004856:    ee101a90    ....    VMOV     r1,s1
        0x0000485a:    f04f4268    O.hB    MOV      r2,#0xe8000000
        0x0000485e:    eb020340    ..@.    ADD      r3,r2,r0,LSL #1
        0x00004862:    ed2d8b02    -...    VPUSH    {d8}
        0x00004866:    f1b34f65    ..eO    CMP      r3,#0xe5000000
        0x0000486a:    bf3c        <.      ITT      CC
        0x0000486c:    eb020241    ..A.    ADDCC    r2,r2,r1,LSL #1
        0x00004870:    f1b24f65    ..eO    CMPCC    r2,#0xe5000000
        0x00004874:    d27c        |.      BCS      0x4970 ; __hardfp_atan2f + 288
        0x00004876:    bf00        ..      NOP      
        0x00004878:    f3c053c7    ...S    UBFX     r3,r0,#23,#8
        0x0000487c:    f3c152c7    ...R    UBFX     r2,r1,#23,#8
        0x00004880:    1a9a        ..      SUBS     r2,r3,r2
        0x00004882:    2a1b        .*      CMP      r2,#0x1b
        0x00004884:    dd09        ..      BLE      0x489a ; __hardfp_atan2f + 74
        0x00004886:    f0104f00    ...O    TST      r0,#0x80000000
        0x0000488a:    bf14        ..      ITE      NE
        0x0000488c:    ed9f0a6e    ..n.    VLDRNE   s0,[pc,#440] ; [0x4a48] = 0xbfc90fdb
        0x00004890:    ed9f0a6e    ..n.    VLDREQ   s0,[pc,#440] ; [0x4a4c] = 0x3fc90fdb
        0x00004894:    ecbd8b02    ....    VPOP     {d8}
        0x00004898:    bd10        ..      POP      {r4,pc}
        0x0000489a:    f1120f1a    ....    CMN      r2,#0x1a
        0x0000489e:    da1b        ..      BGE      0x48d8 ; __hardfp_atan2f + 136
        0x000048a0:    f0114f00    ...O    TST      r1,#0x80000000
        0x000048a4:    d009        ..      BEQ      0x48ba ; __hardfp_atan2f + 106
        0x000048a6:    f0104f00    ...O    TST      r0,#0x80000000
        0x000048aa:    bf0c        ..      ITE      EQ
        0x000048ac:    ed9f0a68    ..h.    VLDREQ   s0,[pc,#416] ; [0x4a50] = 0x40490fdb
        0x000048b0:    ed9f0a68    ..h.    VLDRNE   s0,[pc,#416] ; [0x4a54] = 0xc0490fdb
        0x000048b4:    ecbd8b02    ....    VPOP     {d8}
        0x000048b8:    bd10        ..      POP      {r4,pc}
        0x000048ba:    ee808a20    .. .    VDIV.F32 s16,s0,s1
        0x000048be:    ee180a10    ....    VMOV     r0,s16
        0x000048c2:    f7ffff1c    ....    BL       __ARM_fpclassifyf ; 0x46fe
        0x000048c6:    2804        .(      CMP      r0,#4
        0x000048c8:    bf08        ..      IT       EQ
        0x000048ca:    f000f915    ....    BLEQ     __mathlib_flt_underflow ; 0x4af8
        0x000048ce:    eeb00a48    ..H.    VMOV.F32 s0,s16
        0x000048d2:    ecbd8b02    ....    VPOP     {d8}
        0x000048d6:    bd10        ..      POP      {r4,pc}
        0x000048d8:    0042        B.      LSLS     r2,r0,#1
        0x000048da:    ebb20f41    ..A.    CMP      r2,r1,LSL #1
        0x000048de:    d937        7.      BLS      0x4950 ; __hardfp_atan2f + 256
        0x000048e0:    f0104f00    ...O    TST      r0,#0x80000000
        0x000048e4:    bf19        ..      ITTEE    NE
        0x000048e6:    eddf1a5c    ..\.    VLDRNE   s3,[pc,#368] ; [0x4a58] = 0xbfc90000
        0x000048ea:    ed9f1a5c    ..\.    VLDRNE   s2,[pc,#368] ; [0x4a5c] = 0xb9fdaa22
        0x000048ee:    eddf1a5c    ..\.    VLDREQ   s3,[pc,#368] ; [0x4a60] = 0x3fc90000
        0x000048f2:    ed9f1a5c    ..\.    VLDREQ   s2,[pc,#368] ; [0x4a64] = 0x39fdaa22
        0x000048f6:    eeb02a60    ..`*    VMOV.F32 s4,s1
        0x000048fa:    460a        .F      MOV      r2,r1
        0x000048fc:    eef10a40    ..@.    VNEG.F32 s1,s0
        0x00004900:    f0804100    ...A    EOR      r1,r0,#0x80000000
        0x00004904:    eeb00a42    ..B.    VMOV.F32 s0,s4
        0x00004908:    4610        .F      MOV      r0,r2
        0x0000490a:    1a0a        ..      SUBS     r2,r1,r0
        0x0000490c:    0052        R.      LSLS     r2,r2,#1
        0x0000490e:    f1b27f80    ....    CMP      r2,#0x1000000
        0x00004912:    d234        4.      BCS      0x497e ; __hardfp_atan2f + 302
        0x00004914:    4048        H@      EORS     r0,r0,r1
        0x00004916:    f0104f00    ...O    TST      r0,#0x80000000
        0x0000491a:    eddf2a53    ..S*    VLDR     s5,[pc,#332] ; [0x4a68] = 0x3eed6000
        0x0000491e:    ed9f3a53    ..S:    VLDR     s6,[pc,#332] ; [0x4a6c] = 0x37ce0ac3
        0x00004922:    bf1d        ..      ITTTE    NE
        0x00004924:    eebe2a00    ...*    VMOVNE.F32 s4,#-0.50000000
        0x00004928:    ee711ae2    q...    VSUBNE.F32 s3,s3,s5
        0x0000492c:    ee311a43    1.C.    VSUBNE.F32 s2,s2,s6
        0x00004930:    eeb62a00    ...*    VMOVEQ.F32 s4,#0.50000000
        0x00004934:    bf04        ..      ITT      EQ
        0x00004936:    ee711aa2    q...    VADDEQ.F32 s3,s3,s5
        0x0000493a:    ee311a03    1...    VADDEQ.F32 s2,s2,s6
        0x0000493e:    eef02a40    ..@*    VMOV.F32 s5,s0
        0x00004942:    ee422a60    B.`*    VMLS.F32 s5,s4,s1
        0x00004946:    ee400a02    @...    VMLA.F32 s1,s0,s4
        0x0000494a:    ee822aa0    ...*    VDIV.F32 s4,s5,s1
        0x0000494e:    e018        ..      B        0x4982 ; __hardfp_atan2f + 306
        0x00004950:    f0114f00    ...O    TST      r1,#0x80000000
        0x00004954:    bf04        ..      ITT      EQ
        0x00004956:    ed9f1a46    ..F.    VLDREQ   s2,[pc,#280] ; [0x4a70] = 0
        0x0000495a:    eef01a41    ..A.    VMOVEQ.F32 s3,s2
        0x0000495e:    d0d4        ..      BEQ      0x490a ; __hardfp_atan2f + 186
        0x00004960:    f0104f00    ...O    TST      r0,#0x80000000
        0x00004964:    bf1c        ..      ITT      NE
        0x00004966:    eddf1a43    ..C.    VLDRNE   s3,[pc,#268] ; [0x4a74] = 0xc0490000
        0x0000496a:    ed9f1a43    ..C.    VLDRNE   s2,[pc,#268] ; [0x4a78] = 0xba7daa22
        0x0000496e:    e000        ..      B        0x4972 ; __hardfp_atan2f + 290
        0x00004970:    e026        &.      B        0x49c0 ; __hardfp_atan2f + 368
        0x00004972:    bf04        ..      ITT      EQ
        0x00004974:    eddf1a41    ..A.    VLDREQ   s3,[pc,#260] ; [0x4a7c] = 0x40490000
        0x00004978:    ed9f1a41    ..A.    VLDREQ   s2,[pc,#260] ; [0x4a80] = 0x3a7daa22
        0x0000497c:    e7c5        ..      B        0x490a ; __hardfp_atan2f + 186
        0x0000497e:    ee802a20    .. *    VDIV.F32 s4,s0,s1
        0x00004982:    ee220a02    "...    VMUL.F32 s0,s4,s4
        0x00004986:    eddf0a3f    ..?.    VLDR     s1,[pc,#252] ; [0x4a84] = 0xbd65ad2d
        0x0000498a:    eddf2a3f    ..?*    VLDR     s5,[pc,#252] ; [0x4a88] = 0x3dd5b88f
        0x0000498e:    ecbd8b02    ....    VPOP     {d8}
        0x00004992:    ee402a20    @. *    VMLA.F32 s5,s0,s1
        0x00004996:    eddf0a3d    ..=.    VLDR     s1,[pc,#244] ; [0x4a8c] = 0xbe11b50f
        0x0000499a:    ee400a22    @.".    VMLA.F32 s1,s0,s5
        0x0000499e:    eddf2a3c    ..<*    VLDR     s5,[pc,#240] ; [0x4a90] = 0x3e4cc861
        0x000049a2:    ee402a20    @. *    VMLA.F32 s5,s0,s1
        0x000049a6:    eddf0a3b    ..;.    VLDR     s1,[pc,#236] ; [0x4a94] = 0xbeaaaaa8
        0x000049aa:    ee400a22    @.".    VMLA.F32 s1,s0,s5
        0x000049ae:    ee220a00    "...    VMUL.F32 s0,s4,s0
        0x000049b2:    ee001a20    .. .    VMLA.F32 s2,s0,s1
        0x000049b6:    ee310a02    1...    VADD.F32 s0,s2,s4
        0x000049ba:    ee300a21    0.!.    VADD.F32 s0,s0,s3
        0x000049be:    bd10        ..      POP      {r4,pc}
        0x000049c0:    f04f427f    O..B    MOV      r2,#0xff000000
        0x000049c4:    ebb20f40    ..@.    CMP      r2,r0,LSL #1
        0x000049c8:    bf28        (.      IT       CS
        0x000049ca:    ebb20f41    ..A.    CMPCS    r2,r1,LSL #1
        0x000049ce:    d205        ..      BCS      0x49dc ; __hardfp_atan2f + 396
        0x000049d0:    ecbd8b02    ....    VPOP     {d8}
        0x000049d4:    e8bd4010    ...@    POP      {r4,lr}
        0x000049d8:    f000b882    ....    B.W      __mathlib_flt_infnan2 ; 0x4ae0
        0x000049dc:    ea400301    @...    ORR      r3,r0,r1
        0x000049e0:    005b        [.      LSLS     r3,r3,#1
        0x000049e2:    bf08        ..      IT       EQ
        0x000049e4:    f04141ff    A..A    ORREQ    r1,r1,#0x7f800000
        0x000049e8:    d00b        ..      BEQ      0x4a02 ; __hardfp_atan2f + 434
        0x000049ea:    ebb20f40    ..@.    CMP      r2,r0,LSL #1
        0x000049ee:    bf08        ..      IT       EQ
        0x000049f0:    ebb20f41    ..A.    CMPEQ    r2,r1,LSL #1
        0x000049f4:    d108        ..      BNE      0x4a08 ; __hardfp_atan2f + 440
        0x000049f6:    f0204080     ..@    BIC      r0,r0,#0x40000000
        0x000049fa:    ee000a10    ....    VMOV     s0,r0
        0x000049fe:    f0214180    !..A    BIC      r1,r1,#0x40000000
        0x00004a02:    ee001a90    ....    VMOV     s1,r1
        0x00004a06:    e737        7.      B        0x4878 ; __hardfp_atan2f + 40
        0x00004a08:    ebb20f40    ..@.    CMP      r2,r0,LSL #1
        0x00004a0c:    bf12        ..      ITEE     NE
        0x00004a0e:    ea5f0241    _.A.    LSLSNE   r2,r1,#1
        0x00004a12:    f04040ff    @..@    ORREQ    r0,r0,#0x7f800000
        0x00004a16:    f0014100    ...A    ANDEQ    r1,r1,#0x80000000
        0x00004a1a:    f43faf2d    ?.-.    BEQ      0x4878 ; __hardfp_atan2f + 40
        0x00004a1e:    004a        J.      LSLS     r2,r1,#1
        0x00004a20:    ea920340    ..@.    EORS     r3,r2,r0,LSL #1
        0x00004a24:    f53faf28    ?.(.    BMI      0x4878 ; __hardfp_atan2f + 40
        0x00004a28:    2a00        .*      CMP      r2,#0
        0x00004a2a:    bfac        ..      ITE      GE
        0x00004a2c:    ed9f1a1a    ....    VLDRGE   s2,[pc,#104] ; [0x4a98] = 0x4f800000
        0x00004a30:    ed9f1a1a    ....    VLDRLT   s2,[pc,#104] ; [0x4a9c] = 0x2f800000
        0x00004a34:    ee200a01     ...    VMUL.F32 s0,s0,s2
        0x00004a38:    ee600a81    `...    VMUL.F32 s1,s1,s2
        0x00004a3c:    ee100a10    ....    VMOV     r0,s0
        0x00004a40:    ee101a90    ....    VMOV     r1,s1
        0x00004a44:    e718        ..      B        0x4878 ; __hardfp_atan2f + 40
    $d
        0x00004a46:    0000        ..      DCW    0
        0x00004a48:    bfc90fdb    ....    DCD    3217625051
        0x00004a4c:    3fc90fdb    ...?    DCD    1070141403
        0x00004a50:    40490fdb    ..I@    DCD    1078530011
        0x00004a54:    c0490fdb    ..I.    DCD    3226013659
        0x00004a58:    bfc90000    ....    DCD    3217620992
        0x00004a5c:    b9fdaa22    "...    DCD    3120409122
        0x00004a60:    3fc90000    ...?    DCD    1070137344
        0x00004a64:    39fdaa22    "..9    DCD    972925474
        0x00004a68:    3eed6000    .`.>    DCD    1055744000
        0x00004a6c:    37ce0ac3    ...7    DCD    936250051
        0x00004a70:    00000000    ....    DCD    0
        0x00004a74:    c0490000    ..I.    DCD    3226009600
        0x00004a78:    ba7daa22    ".}.    DCD    3128797730
        0x00004a7c:    40490000    ..I@    DCD    1078525952
        0x00004a80:    3a7daa22    ".}:    DCD    981314082
        0x00004a84:    bd65ad2d    -.e.    DCD    3177557293
        0x00004a88:    3dd5b88f    ...=    DCD    1037416591
        0x00004a8c:    be11b50f    ....    DCD    3188831503
        0x00004a90:    3e4cc861    a.L>    DCD    1045219425
        0x00004a94:    beaaaaa8    ....    DCD    3198855848
        0x00004a98:    4f800000    ...O    DCD    1333788672
        0x00004a9c:    2f800000    .../    DCD    796917760
    $t
    i.__hardfp_sqrtf
    __hardfp_sqrtf
        0x00004aa0:    b510        ..      PUSH     {r4,lr}
        0x00004aa2:    ed2d8b02    -...    VPUSH    {d8}
        0x00004aa6:    eeb18ac0    ....    VSQRT.F32 s16,s0
        0x00004aaa:    ee180a10    ....    VMOV     r0,s16
        0x00004aae:    f0204000     ..@    BIC      r0,r0,#0x80000000
        0x00004ab2:    f1c040ff    ...@    RSB      r0,r0,#0x7f800000
        0x00004ab6:    0fc0        ..      LSRS     r0,r0,#31
        0x00004ab8:    d00a        ..      BEQ      0x4ad0 ; __hardfp_sqrtf + 48
        0x00004aba:    ee100a10    ....    VMOV     r0,s0
        0x00004abe:    f0204000     ..@    BIC      r0,r0,#0x80000000
        0x00004ac2:    f1c040ff    ...@    RSB      r0,r0,#0x7f800000
        0x00004ac6:    0fc0        ..      LSRS     r0,r0,#31
        0x00004ac8:    bf04        ..      ITT      EQ
        0x00004aca:    2001        .       MOVEQ    r0,#1
        0x00004acc:    f000f82c    ..,.    BLEQ     __set_errno ; 0x4b28
        0x00004ad0:    eeb00a48    ..H.    VMOV.F32 s0,s16
        0x00004ad4:    ecbd8b02    ....    VPOP     {d8}
        0x00004ad8:    bd10        ..      POP      {r4,pc}
    i.__mathlib_flt_infnan
    __mathlib_flt_infnan
        0x00004ada:    ee300a00    0...    VADD.F32 s0,s0,s0
        0x00004ade:    4770        pG      BX       lr
    i.__mathlib_flt_infnan2
    __mathlib_flt_infnan2
        0x00004ae0:    ee300a20    0. .    VADD.F32 s0,s0,s1
        0x00004ae4:    4770        pG      BX       lr
        0x00004ae6:    0000        ..      MOVS     r0,r0
    i.__mathlib_flt_invalid
    __mathlib_flt_invalid
        0x00004ae8:    eddf0a02    ....    VLDR     s1,[pc,#8] ; [0x4af4] = 0
        0x00004aec:    ee800aa0    ....    VDIV.F32 s0,s1,s1
        0x00004af0:    4770        pG      BX       lr
    $d
        0x00004af2:    0000        ..      DCW    0
        0x00004af4:    00000000    ....    DCD    0
    $t
    i.__mathlib_flt_underflow
    __mathlib_flt_underflow
        0x00004af8:    ed9f0a02    ....    VLDR     s0,[pc,#8] ; [0x4b04] = 0x10000000
        0x00004afc:    ee200a00     ...    VMUL.F32 s0,s0,s0
        0x00004b00:    4770        pG      BX       lr
    $d
        0x00004b02:    0000        ..      DCW    0
        0x00004b04:    10000000    ....    DCD    268435456
    $t
    i.__scatterload_copy
    __scatterload_copy
        0x00004b08:    e002        ..      B        0x4b10 ; __scatterload_copy + 8
        0x00004b0a:    c808        ..      LDM      r0!,{r3}
        0x00004b0c:    1f12        ..      SUBS     r2,r2,#4
        0x00004b0e:    c108        ..      STM      r1!,{r3}
        0x00004b10:    2a00        .*      CMP      r2,#0
        0x00004b12:    d1fa        ..      BNE      0x4b0a ; __scatterload_copy + 2
        0x00004b14:    4770        pG      BX       lr
    i.__scatterload_null
    __scatterload_null
        0x00004b16:    4770        pG      BX       lr
    i.__scatterload_zeroinit
    __scatterload_zeroinit
        0x00004b18:    2000        .       MOVS     r0,#0
        0x00004b1a:    e001        ..      B        0x4b20 ; __scatterload_zeroinit + 8
        0x00004b1c:    c101        ..      STM      r1!,{r0}
        0x00004b1e:    1f12        ..      SUBS     r2,r2,#4
        0x00004b20:    2a00        .*      CMP      r2,#0
        0x00004b22:    d1fb        ..      BNE      0x4b1c ; __scatterload_zeroinit + 4
        0x00004b24:    4770        pG      BX       lr
        0x00004b26:    0000        ..      MOVS     r0,r0
    i.__set_errno
    __set_errno
        0x00004b28:    4901        .I      LDR      r1,[pc,#4] ; [0x4b30] = 0x20000058
        0x00004b2a:    6008        .`      STR      r0,[r1,#0]
        0x00004b2c:    4770        pG      BX       lr
    $d
        0x00004b2e:    0000        ..      DCW    0
        0x00004b30:    20000058    X..     DCD    536871000
    $t
    i.auth
    auth
        0x00004b34:    b530        0.      PUSH     {r4,r5,lr}
        0x00004b36:    b089        ..      SUB      sp,sp,#0x24
        0x00004b38:    2400        .$      MOVS     r4,#0
        0x00004b3a:    2500        .%      MOVS     r5,#0
        0x00004b3c:    a00f        ..      ADR      r0,{pc}+0x40 ; 0x4b7c
        0x00004b3e:    f7fffbeb    ....    BL       UARTprintf ; 0x4318
        0x00004b42:    2110        .!      MOVS     r1,#0x10
        0x00004b44:    a805        ..      ADD      r0,sp,#0x14
        0x00004b46:    f7fffbb7    ....    BL       UARTgets ; 0x42b8
        0x00004b4a:    a805        ..      ADD      r0,sp,#0x14
        0x00004b4c:    f7fffbe4    ....    BL       UARTprintf ; 0x4318
        0x00004b50:    a00d        ..      ADR      r0,{pc}+0x38 ; 0x4b88
        0x00004b52:    f7fffbe1    ....    BL       UARTprintf ; 0x4318
        0x00004b56:    2110        .!      MOVS     r1,#0x10
        0x00004b58:    a801        ..      ADD      r0,sp,#4
        0x00004b5a:    f7fffbad    ....    BL       UARTgets ; 0x42b8
        0x00004b5e:    490e        .I      LDR      r1,[pc,#56] ; [0x4b98] = 0x20000010
        0x00004b60:    a805        ..      ADD      r0,sp,#0x14
        0x00004b62:    f7fbfbb3    ....    BL       strcmp ; 0x2cc
        0x00004b66:    b938        8.      CBNZ     r0,0x4b78 ; auth + 68
        0x00004b68:    490c        .I      LDR      r1,[pc,#48] ; [0x4b9c] = 0x20000020
        0x00004b6a:    a801        ..      ADD      r0,sp,#4
        0x00004b6c:    f7fbfbae    ....    BL       strcmp ; 0x2cc
        0x00004b70:    b910        ..      CBNZ     r0,0x4b78 ; auth + 68
        0x00004b72:    2001        .       MOVS     r0,#1
        0x00004b74:    b009        ..      ADD      sp,sp,#0x24
        0x00004b76:    bd30        0.      POP      {r4,r5,pc}
        0x00004b78:    2000        .       MOVS     r0,#0
        0x00004b7a:    e7fb        ..      B        0x4b74 ; auth + 64
    $d
        0x00004b7c:    676f4c20     Log    DCD    1735347232
        0x00004b80:    3a206e69    in :    DCD    975203945
        0x00004b84:    00000020     ...    DCD    32
        0x00004b88:    73615020     Pas    DCD    1935757344
        0x00004b8c:    726f7773    swor    DCD    1919907699
        0x00004b90:    203a2064    d :     DCD    540680292
        0x00004b94:    00000000    ....    DCD    0
        0x00004b98:    20000010    ...     DCD    536870928
        0x00004b9c:    20000020     ..     DCD    536870944
    $t
    i.main
    main
        0x00004ba0:    e92d4ff0    -..O    PUSH     {r4-r11,lr}
        0x00004ba4:    ed2d8b04    -...    VPUSH    {d8-d9}
        0x00004ba8:    b0b3        ..      SUB      sp,sp,#0xcc
        0x00004baa:    af03        ..      ADD      r7,sp,#0xc
        0x00004bac:    f10d0818    ....    ADD      r8,sp,#0x18
        0x00004bb0:    ac09        ..      ADD      r4,sp,#0x24
        0x00004bb2:    ae0c        ..      ADD      r6,sp,#0x30
        0x00004bb4:    a80f        ..      ADD      r0,sp,#0x3c
        0x00004bb6:    9002        ..      STR      r0,[sp,#8]
        0x00004bb8:    f04f7080    O..p    MOV      r0,#0x1000000
        0x00004bbc:    6c40        @l      LDR      r0,[r0,#0x44]
        0x00004bbe:    6dc1        .m      LDR      r1,[r0,#0x5c]
        0x00004bc0:    48f8        .H      LDR      r0,[pc,#992] ; [0x4fa4] = 0x2400540
        0x00004bc2:    4788        .G      BLX      r1
        0x00004bc4:    f04f7080    O..p    MOV      r0,#0x1000000
        0x00004bc8:    6c40        @l      LDR      r0,[r0,#0x44]
        0x00004bca:    6981        .i      LDR      r1,[r0,#0x18]
        0x00004bcc:    48f6        .H      LDR      r0,[pc,#984] ; [0x4fa8] = 0xf0000801
        0x00004bce:    4788        .G      BLX      r1
        0x00004bd0:    f7fcf968    ..h.    BL       ConfigureUART ; 0xea4
        0x00004bd4:    f7ffffae    ....    BL       auth ; 0x4b34
        0x00004bd8:    4682        .F      MOV      r10,r0
        0x00004bda:    f1ba0f00    ....    CMP      r10,#0
        0x00004bde:    d109        ..      BNE      0x4bf4 ; main + 84
        0x00004be0:    a0f2        ..      ADR      r0,{pc}+0x3cc ; 0x4fac
        0x00004be2:    f7fffb99    ....    BL       UARTprintf ; 0x4318
        0x00004be6:    f04f30ff    O..0    MOV      r0,#0xffffffff
        0x00004bea:    b033        3.      ADD      sp,sp,#0xcc
        0x00004bec:    ecbd8b04    ....    VPOP     {d8-d9}
        0x00004bf0:    e8bd8ff0    ....    POP      {r4-r11,pc}
        0x00004bf4:    a0ef        ..      ADR      r0,{pc}+0x3c0 ; 0x4fb4
        0x00004bf6:    f7fffb8f    ....    BL       UARTprintf ; 0x4318
        0x00004bfa:    a0f8        ..      ADR      r0,{pc}+0x3e2 ; 0x4fdc
        0x00004bfc:    f7fffb8c    ....    BL       UARTprintf ; 0x4318
        0x00004c00:    f44f4000    O..@    MOV      r0,#0x8000
        0x00004c04:    49fc        .I      LDR      r1,[pc,#1008] ; [0x4ff8] = 0x2000066c
        0x00004c06:    6008        .`      STR      r0,[r1,#0]
        0x00004c08:    6088        .`      STR      r0,[r1,#8]
        0x00004c0a:    2000        .       MOVS     r0,#0
        0x00004c0c:    6048        H`      STR      r0,[r1,#4]
        0x00004c0e:    f7fef9c9    ....    BL       RGBInit ; 0x2fa4
        0x00004c12:    48f9        .H      LDR      r0,[pc,#996] ; [0x4ff8] = 0x2000066c
        0x00004c14:    f7fef8dc    ....    BL       RGBColorSet ; 0x2dd0
        0x00004c18:    eeb60a00    ....    VMOV.F32 s0,#0.50000000
        0x00004c1c:    f7fefa48    ..H.    BL       RGBIntensitySet ; 0x30b0
        0x00004c20:    f7fef958    ..X.    BL       RGBEnable ; 0x2ed4
        0x00004c24:    f04f7080    O..p    MOV      r0,#0x1000000
        0x00004c28:    6c40        @l      LDR      r0,[r0,#0x44]
        0x00004c2a:    6981        .i      LDR      r1,[r0,#0x18]
        0x00004c2c:    48f3        .H      LDR      r0,[pc,#972] ; [0x4ffc] = 0xf0002003
        0x00004c2e:    4788        .G      BLX      r1
        0x00004c30:    f04f7080    O..p    MOV      r0,#0x1000000
        0x00004c34:    6c40        @l      LDR      r0,[r0,#0x44]
        0x00004c36:    6981        .i      LDR      r1,[r0,#0x18]
        0x00004c38:    48db        .H      LDR      r0,[pc,#876] ; [0x4fa8] = 0xf0000801
        0x00004c3a:    1c80        ..      ADDS     r0,r0,#2
        0x00004c3c:    4788        .G      BLX      r1
        0x00004c3e:    f04f7080    O..p    MOV      r0,#0x1000000
        0x00004c42:    6a00        .j      LDR      r0,[r0,#0x20]
        0x00004c44:    6e81        .n      LDR      r1,[r0,#0x68]
        0x00004c46:    f04f1003    O...    MOV      r0,#0x30003
        0x00004c4a:    4788        .G      BLX      r1
        0x00004c4c:    f04f7080    O..p    MOV      r0,#0x1000000
        0x00004c50:    6a00        .j      LDR      r0,[r0,#0x20]
        0x00004c52:    6e81        .n      LDR      r1,[r0,#0x68]
        0x00004c54:    48ea        .H      LDR      r0,[pc,#936] ; [0x5000] = 0x30403
        0x00004c56:    4788        .G      BLX      r1
        0x00004c58:    2101        .!      MOVS     r1,#1
        0x00004c5a:    48ea        .H      LDR      r0,[pc,#936] ; [0x5004] = 0x40007000
        0x00004c5c:    f7fcfc19    ....    BL       GPIOPinTypeI2CSCL ; 0x1492
        0x00004c60:    f04f7080    O..p    MOV      r0,#0x1000000
        0x00004c64:    6a00        .j      LDR      r0,[r0,#0x20]
        0x00004c66:    2102        .!      MOVS     r1,#2
        0x00004c68:    6c02        .l      LDR      r2,[r0,#0x40]
        0x00004c6a:    48e6        .H      LDR      r0,[pc,#920] ; [0x5004] = 0x40007000
        0x00004c6c:    4790        .G      BLX      r2
        0x00004c6e:    f04f7080    O..p    MOV      r0,#0x1000000
        0x00004c72:    6a00        .j      LDR      r0,[r0,#0x20]
        0x00004c74:    2104        .!      MOVS     r1,#4
        0x00004c76:    6b82        .k      LDR      r2,[r0,#0x38]
        0x00004c78:    48e3        .H      LDR      r0,[pc,#908] ; [0x5008] = 0x40005000
        0x00004c7a:    4790        .G      BLX      r2
        0x00004c7c:    2104        .!      MOVS     r1,#4
        0x00004c7e:    48e2        .H      LDR      r0,[pc,#904] ; [0x5008] = 0x40005000
        0x00004c80:    f7fcf991    ....    BL       GPIOIntEnable ; 0xfa6
        0x00004c84:    f04f7080    O..p    MOV      r0,#0x1000000
        0x00004c88:    6a00        .j      LDR      r0,[r0,#0x20]
        0x00004c8a:    2200        ."      MOVS     r2,#0
        0x00004c8c:    2104        .!      MOVS     r1,#4
        0x00004c8e:    68c3        .h      LDR      r3,[r0,#0xc]
        0x00004c90:    48dd        .H      LDR      r0,[pc,#884] ; [0x5008] = 0x40005000
        0x00004c92:    4798        .G      BLX      r3
        0x00004c94:    f04f7080    O..p    MOV      r0,#0x1000000
        0x00004c98:    6c80        .l      LDR      r0,[r0,#0x48]
        0x00004c9a:    6801        .h      LDR      r1,[r0,#0]
        0x00004c9c:    2011        .       MOVS     r0,#0x11
        0x00004c9e:    4788        .G      BLX      r1
        0x00004ca0:    f04f7080    O..p    MOV      r0,#0x1000000
        0x00004ca4:    6c40        @l      LDR      r0,[r0,#0x44]
        0x00004ca6:    6b01        .k      LDR      r1,[r0,#0x30]
        0x00004ca8:    2001        .       MOVS     r0,#1
        0x00004caa:    4788        .G      BLX      r1
        0x00004cac:    f04f7080    O..p    MOV      r0,#0x1000000
        0x00004cb0:    6c40        @l      LDR      r0,[r0,#0x44]
        0x00004cb2:    6a01        .j      LDR      r1,[r0,#0x20]
        0x00004cb4:    48bc        .H      LDR      r0,[pc,#752] ; [0x4fa8] = 0xf0000801
        0x00004cb6:    4788        .G      BLX      r1
        0x00004cb8:    f04f7080    O..p    MOV      r0,#0x1000000
        0x00004cbc:    6c40        @l      LDR      r0,[r0,#0x44]
        0x00004cbe:    6a01        .j      LDR      r1,[r0,#0x20]
        0x00004cc0:    48d2        .H      LDR      r0,[pc,#840] ; [0x500c] = 0xf0001800
        0x00004cc2:    4788        .G      BLX      r1
        0x00004cc4:    f04f7080    O..p    MOV      r0,#0x1000000
        0x00004cc8:    6c40        @l      LDR      r0,[r0,#0x44]
        0x00004cca:    6a01        .j      LDR      r1,[r0,#0x20]
        0x00004ccc:    48d0        .H      LDR      r0,[pc,#832] ; [0x5010] = 0xf0000400
        0x00004cce:    4788        .G      BLX      r1
        0x00004cd0:    f04f7080    O..p    MOV      r0,#0x1000000
        0x00004cd4:    6c40        @l      LDR      r0,[r0,#0x44]
        0x00004cd6:    6a01        .j      LDR      r1,[r0,#0x20]
        0x00004cd8:    48cd        .H      LDR      r0,[pc,#820] ; [0x5010] = 0xf0000400
        0x00004cda:    1c40        @.      ADDS     r0,r0,#1
        0x00004cdc:    4788        .G      BLX      r1
        0x00004cde:    f04f7080    O..p    MOV      r0,#0x1000000
        0x00004ce2:    6c40        @l      LDR      r0,[r0,#0x44]
        0x00004ce4:    6a01        .j      LDR      r1,[r0,#0x20]
        0x00004ce6:    48c5        .H      LDR      r0,[pc,#788] ; [0x4ffc] = 0xf0002003
        0x00004ce8:    4788        .G      BLX      r1
        0x00004cea:    f04f7080    O..p    MOV      r0,#0x1000000
        0x00004cee:    6c40        @l      LDR      r0,[r0,#0x44]
        0x00004cf0:    6a01        .j      LDR      r1,[r0,#0x20]
        0x00004cf2:    48c8        .H      LDR      r0,[pc,#800] ; [0x5014] = 0xf0005c05
        0x00004cf4:    4788        .G      BLX      r1
        0x00004cf6:    f04f7180    O..q    MOV      r1,#0x1000000
        0x00004cfa:    6c89        .l      LDR      r1,[r1,#0x48]
        0x00004cfc:    6848        Hh      LDR      r0,[r1,#4]
        0x00004cfe:    4780        .G      BLX      r0
        0x00004d00:    f04f7180    O..q    MOV      r1,#0x1000000
        0x00004d04:    6c49        Il      LDR      r1,[r1,#0x44]
        0x00004d06:    6e08        .n      LDR      r0,[r1,#0x60]
        0x00004d08:    4780        .G      BLX      r0
        0x00004d0a:    4683        .F      MOV      r11,r0
        0x00004d0c:    20ff        .       MOVS     r0,#0xff
        0x00004d0e:    4603        .F      MOV      r3,r0
        0x00004d10:    2255        U"      MOVS     r2,#0x55
        0x00004d12:    49c1        .I      LDR      r1,[pc,#772] ; [0x5018] = 0x40023000
        0x00004d14:    e9cd0b00    ....    STRD     r0,r11,[sp,#0]
        0x00004d18:    48c0        .H      LDR      r0,[pc,#768] ; [0x501c] = 0x20000678
        0x00004d1a:    f7fcfd8e    ....    BL       I2CMInit ; 0x183a
        0x00004d1e:    48c0        .H      LDR      r0,[pc,#768] ; [0x5020] = 0x2000079c
        0x00004d20:    4bc0        .K      LDR      r3,[pc,#768] ; [0x5024] = 0x25f1
        0x00004d22:    2268        h"      MOVS     r2,#0x68
        0x00004d24:    49bd        .I      LDR      r1,[pc,#756] ; [0x501c] = 0x20000678
        0x00004d26:    9000        ..      STR      r0,[sp,#0]
        0x00004d28:    f7fdff0a    ....    BL       MPU9150Init ; 0x2b40
        0x00004d2c:    f2402105    @..!    MOV      r1,#0x205
        0x00004d30:    a0bd        ..      ADR      r0,{pc}+0x2f8 ; 0x5028
        0x00004d32:    f7fdfc97    ....    BL       MPU9150AppI2CWait ; 0x2664
        0x00004d36:    2002        .       MOVS     r0,#2
        0x00004d38:    49b9        .I      LDR      r1,[pc,#740] ; [0x5020] = 0x2000079c
        0x00004d3a:    f8810036    ..6.    STRB     r0,[r1,#0x36]
        0x00004d3e:    2100        .!      MOVS     r1,#0
        0x00004d40:    48b7        .H      LDR      r0,[pc,#732] ; [0x5020] = 0x2000079c
        0x00004d42:    f8801037    ..7.    STRB     r1,[r0,#0x37]
        0x00004d46:    2101        .!      MOVS     r1,#1
        0x00004d48:    f8801038    ..8.    STRB     r1,[r0,#0x38]
        0x00004d4c:    49b5        .I      LDR      r1,[pc,#724] ; [0x5024] = 0x25f1
        0x00004d4e:    2303        .#      MOVS     r3,#3
        0x00004d50:    f1000236    ..6.    ADD      r2,r0,#0x36
        0x00004d54:    e9cd1000    ....    STRD     r1,r0,[sp,#0]
        0x00004d58:    211a        .!      MOVS     r1,#0x1a
        0x00004d5a:    f7fdff81    ....    BL       MPU9150Write ; 0x2c60
        0x00004d5e:    f2402115    @..!    MOV      r1,#0x215
        0x00004d62:    a0b1        ..      ADR      r0,{pc}+0x2c6 ; 0x5028
        0x00004d64:    f7fdfc7e    ..~.    BL       MPU9150AppI2CWait ; 0x2664
        0x00004d68:    20b0        .       MOVS     r0,#0xb0
        0x00004d6a:    49ad        .I      LDR      r1,[pc,#692] ; [0x5020] = 0x2000079c
        0x00004d6c:    f8810036    ..6.    STRB     r0,[r1,#0x36]
        0x00004d70:    2101        .!      MOVS     r1,#1
        0x00004d72:    48ab        .H      LDR      r0,[pc,#684] ; [0x5020] = 0x2000079c
        0x00004d74:    f8801037    ..7.    STRB     r1,[r0,#0x37]
        0x00004d78:    49aa        .I      LDR      r1,[pc,#680] ; [0x5024] = 0x25f1
        0x00004d7a:    2302        .#      MOVS     r3,#2
        0x00004d7c:    f1000236    ..6.    ADD      r2,r0,#0x36
        0x00004d80:    e9cd1000    ....    STRD     r1,r0,[sp,#0]
        0x00004d84:    2137        7!      MOVS     r1,#0x37
        0x00004d86:    f7fdff6b    ..k.    BL       MPU9150Write ; 0x2c60
        0x00004d8a:    f2402125    @.%!    MOV      r1,#0x225
        0x00004d8e:    a0a6        ..      ADR      r0,{pc}+0x29a ; 0x5028
        0x00004d90:    f7fdfc68    ..h.    BL       MPU9150AppI2CWait ; 0x2664
        0x00004d94:    eddf1aa9    ....    VLDR     s3,[pc,#676] ; [0x503c] = 0x3e4ccccd
        0x00004d98:    ed9f1aa9    ....    VLDR     s2,[pc,#676] ; [0x5040] = 0x3f19999a
        0x00004d9c:    eddf0aa7    ....    VLDR     s1,[pc,#668] ; [0x503c] = 0x3e4ccccd
        0x00004da0:    ed9f0aa8    ....    VLDR     s0,[pc,#672] ; [0x5044] = 0x3ca3d70a
        0x00004da4:    48a8        .H      LDR      r0,[pc,#672] ; [0x5048] = 0x20000808
        0x00004da6:    f7fbfe31    ..1.    BL       CompDCMInit ; 0xa0c
        0x00004daa:    a0a8        ..      ADR      r0,{pc}+0x2a2 ; 0x504c
        0x00004dac:    f7fffab4    ....    BL       UARTprintf ; 0x4318
        0x00004db0:    a0a8        ..      ADR      r0,{pc}+0x2a4 ; 0x5054
        0x00004db2:    f7fffab1    ....    BL       UARTprintf ; 0x4318
        0x00004db6:    a0b4        ..      ADR      r0,{pc}+0x2d2 ; 0x5088
        0x00004db8:    f7fffaae    ....    BL       UARTprintf ; 0x4318
        0x00004dbc:    a0bb        ..      ADR      r0,{pc}+0x2f0 ; 0x50ac
        0x00004dbe:    f7fffaab    ....    BL       UARTprintf ; 0x4318
        0x00004dc2:    a0c1        ..      ADR      r0,{pc}+0x306 ; 0x50c8
        0x00004dc4:    f7fffaa8    ....    BL       UARTprintf ; 0x4318
        0x00004dc8:    a0c5        ..      ADR      r0,{pc}+0x318 ; 0x50e0
        0x00004dca:    f7fffaa5    ....    BL       UARTprintf ; 0x4318
        0x00004dce:    a0ca        ..      ADR      r0,{pc}+0x32a ; 0x50f8
        0x00004dd0:    f7fffaa2    ....    BL       UARTprintf ; 0x4318
        0x00004dd4:    a0d3        ..      ADR      r0,{pc}+0x350 ; 0x5124
        0x00004dd6:    f7fffa9f    ....    BL       UARTprintf ; 0x4318
        0x00004dda:    a0d9        ..      ADR      r0,{pc}+0x366 ; 0x5140
        0x00004ddc:    f7fffa9c    ....    BL       UARTprintf ; 0x4318
        0x00004de0:    a0e4        ..      ADR      r0,{pc}+0x394 ; 0x5174
        0x00004de2:    f7fffa99    ....    BL       UARTprintf ; 0x4318
        0x00004de6:    eeb70a00    ....    VMOV.F32 s0,#1.00000000
        0x00004dea:    f7fdffa5    ....    BL       RGBBlinkRateSet ; 0x2d38
        0x00004dee:    f04f0900    O...    MOV      r9,#0
        0x00004df2:    e292        ..      B        0x531a ; main + 1914
        0x00004df4:    e004        ..      B        0x4e00 ; main + 608
        0x00004df6:    f04f7180    O..q    MOV      r1,#0x1000000
        0x00004dfa:    6c49        Il      LDR      r1,[r1,#0x44]
        0x00004dfc:    6808        .h      LDR      r0,[r1,#0]
        0x00004dfe:    4780        .G      BLX      r0
        0x00004e00:    48e3        .H      LDR      r0,[pc,#908] ; [0x5190] = 0x20000000
        0x00004e02:    6800        .h      LDR      r0,[r0,#0]
        0x00004e04:    2800        .(      CMP      r0,#0
        0x00004e06:    d0f6        ..      BEQ      0x4df6 ; main + 598
        0x00004e08:    2000        .       MOVS     r0,#0
        0x00004e0a:    49e1        .I      LDR      r1,[pc,#900] ; [0x5190] = 0x20000000
        0x00004e0c:    6008        .`      STR      r0,[r1,#0]
        0x00004e0e:    f1070308    ....    ADD      r3,r7,#8
        0x00004e12:    1d3a        :.      ADDS     r2,r7,#4
        0x00004e14:    4639        9F      MOV      r1,r7
        0x00004e16:    4882        .H      LDR      r0,[pc,#520] ; [0x5020] = 0x2000079c
        0x00004e18:    f7fdfd5a    ..Z.    BL       MPU9150DataAccelGetFloat ; 0x28d0
        0x00004e1c:    f1080308    ....    ADD      r3,r8,#8
        0x00004e20:    1f1a        ..      SUBS     r2,r3,#4
        0x00004e22:    4641        AF      MOV      r1,r8
        0x00004e24:    487e        ~H      LDR      r0,[pc,#504] ; [0x5020] = 0x2000079c
        0x00004e26:    f7fdfd9b    ....    BL       MPU9150DataGyroGetFloat ; 0x2960
        0x00004e2a:    f1040308    ....    ADD      r3,r4,#8
        0x00004e2e:    1d22        ".      ADDS     r2,r4,#4
        0x00004e30:    4621        !F      MOV      r1,r4
        0x00004e32:    487b        {H      LDR      r0,[pc,#492] ; [0x5020] = 0x2000079c
        0x00004e34:    f7fdfde8    ....    BL       MPU9150DataMagnetoGetFloat ; 0x2a08
        0x00004e38:    f1b90f00    ....    CMP      r9,#0
        0x00004e3c:    d132        2.      BNE      0x4ea4 ; main + 772
        0x00004e3e:    f04f0901    O...    MOV      r9,#1
        0x00004e42:    edd41a02    ....    VLDR     s3,[r4,#8]
        0x00004e46:    eeb01a61    ..a.    VMOV.F32 s2,s3
        0x00004e4a:    edd41a01    ....    VLDR     s3,[r4,#4]
        0x00004e4e:    eef00a61    ..a.    VMOV.F32 s1,s3
        0x00004e52:    edd41a00    ....    VLDR     s3,[r4,#0]
        0x00004e56:    eeb00a61    ..a.    VMOV.F32 s0,s3
        0x00004e5a:    487b        {H      LDR      r0,[pc,#492] ; [0x5048] = 0x20000808
        0x00004e5c:    f7fbfdf4    ....    BL       CompDCMMagnetoUpdate ; 0xa48
        0x00004e60:    edd71a02    ....    VLDR     s3,[r7,#8]
        0x00004e64:    eeb01a61    ..a.    VMOV.F32 s2,s3
        0x00004e68:    edd71a01    ....    VLDR     s3,[r7,#4]
        0x00004e6c:    eef00a61    ..a.    VMOV.F32 s1,s3
        0x00004e70:    edd71a00    ....    VLDR     s3,[r7,#0]
        0x00004e74:    eeb00a61    ..a.    VMOV.F32 s0,s3
        0x00004e78:    4873        sH      LDR      r0,[pc,#460] ; [0x5048] = 0x20000808
        0x00004e7a:    f7fbfc88    ....    BL       CompDCMAccelUpdate ; 0x78e
        0x00004e7e:    edd81a02    ....    VLDR     s3,[r8,#8]
        0x00004e82:    eeb01a61    ..a.    VMOV.F32 s2,s3
        0x00004e86:    edd81a01    ....    VLDR     s3,[r8,#4]
        0x00004e8a:    eef00a61    ..a.    VMOV.F32 s1,s3
        0x00004e8e:    edd81a00    ....    VLDR     s3,[r8,#0]
        0x00004e92:    eeb00a61    ..a.    VMOV.F32 s0,s3
        0x00004e96:    486c        lH      LDR      r0,[pc,#432] ; [0x5048] = 0x20000808
        0x00004e98:    f7fbfdb0    ....    BL       CompDCMGyroUpdate ; 0x9fc
        0x00004e9c:    486a        jH      LDR      r0,[pc,#424] ; [0x5048] = 0x20000808
        0x00004e9e:    f7fbfdff    ....    BL       CompDCMStart ; 0xaa0
        0x00004ea2:    e035        5.      B        0x4f10 ; main + 880
        0x00004ea4:    edd41a02    ....    VLDR     s3,[r4,#8]
        0x00004ea8:    eeb01a61    ..a.    VMOV.F32 s2,s3
        0x00004eac:    edd41a01    ....    VLDR     s3,[r4,#4]
        0x00004eb0:    eef00a61    ..a.    VMOV.F32 s1,s3
        0x00004eb4:    edd41a00    ....    VLDR     s3,[r4,#0]
        0x00004eb8:    eeb00a61    ..a.    VMOV.F32 s0,s3
        0x00004ebc:    4862        bH      LDR      r0,[pc,#392] ; [0x5048] = 0x20000808
        0x00004ebe:    f7fbfdc3    ....    BL       CompDCMMagnetoUpdate ; 0xa48
        0x00004ec2:    edd71a02    ....    VLDR     s3,[r7,#8]
        0x00004ec6:    eeb01a61    ..a.    VMOV.F32 s2,s3
        0x00004eca:    edd71a01    ....    VLDR     s3,[r7,#4]
        0x00004ece:    eef00a61    ..a.    VMOV.F32 s1,s3
        0x00004ed2:    edd71a00    ....    VLDR     s3,[r7,#0]
        0x00004ed6:    eeb00a61    ..a.    VMOV.F32 s0,s3
        0x00004eda:    485b        [H      LDR      r0,[pc,#364] ; [0x5048] = 0x20000808
        0x00004edc:    f7fbfc57    ..W.    BL       CompDCMAccelUpdate ; 0x78e
        0x00004ee0:    edd81a02    ....    VLDR     s3,[r8,#8]
        0x00004ee4:    eef11a61    ..a.    VNEG.F32 s3,s3
        0x00004ee8:    eeb01a61    ..a.    VMOV.F32 s2,s3
        0x00004eec:    edd81a01    ....    VLDR     s3,[r8,#4]
        0x00004ef0:    eef11a61    ..a.    VNEG.F32 s3,s3
        0x00004ef4:    eef00a61    ..a.    VMOV.F32 s1,s3
        0x00004ef8:    edd81a00    ....    VLDR     s3,[r8,#0]
        0x00004efc:    eef11a61    ..a.    VNEG.F32 s3,s3
        0x00004f00:    eeb00a61    ..a.    VMOV.F32 s0,s3
        0x00004f04:    4850        PH      LDR      r0,[pc,#320] ; [0x5048] = 0x20000808
        0x00004f06:    f7fbfd79    ..y.    BL       CompDCMGyroUpdate ; 0x9fc
        0x00004f0a:    484f        OH      LDR      r0,[pc,#316] ; [0x5048] = 0x20000808
        0x00004f0c:    f7fbfe58    ..X.    BL       CompDCMUpdate ; 0xbc0
        0x00004f10:    48a0        .H      LDR      r0,[pc,#640] ; [0x5194] = 0x2000000c
        0x00004f12:    6800        .h      LDR      r0,[r0,#0]
        0x00004f14:    1c40        @.      ADDS     r0,r0,#1
        0x00004f16:    499f        .I      LDR      r1,[pc,#636] ; [0x5194] = 0x2000000c
        0x00004f18:    6008        .`      STR      r0,[r1,#0]
        0x00004f1a:    4608        .F      MOV      r0,r1
        0x00004f1c:    6800        .h      LDR      r0,[r0,#0]
        0x00004f1e:    280a        .(      CMP      r0,#0xa
        0x00004f20:    d33e        >.      BCC      0x4fa0 ; main + 1024
        0x00004f22:    2000        .       MOVS     r0,#0
        0x00004f24:    6008        .`      STR      r0,[r1,#0]
        0x00004f26:    f1060308    ....    ADD      r3,r6,#8
        0x00004f2a:    1d32        2.      ADDS     r2,r6,#4
        0x00004f2c:    4631        1F      MOV      r1,r6
        0x00004f2e:    4846        FH      LDR      r0,[pc,#280] ; [0x5048] = 0x20000808
        0x00004f30:    f7fbfc34    ..4.    BL       CompDCMComputeEulers ; 0x79c
        0x00004f34:    4844        DH      LDR      r0,[pc,#272] ; [0x5048] = 0x20000808
        0x00004f36:    9902        ..      LDR      r1,[sp,#8]
        0x00004f38:    f7fbfc56    ..V.    BL       CompDCMComputeQuaternion ; 0x7e8
        0x00004f3c:    ed940a00    ....    VLDR     s0,[r4,#0]
        0x00004f40:    ee101a10    ....    VMOV     r1,s0
        0x00004f44:    4608        .F      MOV      r0,r1
        0x00004f46:    f7fbfafe    ....    BL       __aeabi_f2d ; 0x546
        0x00004f4a:    ec410b19    A...    VMOV     d9,r0,r1
        0x00004f4e:    ed9f0b92    ....    VLDR     d0,[pc,#584] ; [0x5198] = 0
        0x00004f52:    ec532b10    S..+    VMOV     r2,r3,d0
        0x00004f56:    f7fbfa6e    ..n.    BL       __aeabi_dmul ; 0x436
        0x00004f5a:    ec410b18    A...    VMOV     d8,r0,r1
        0x00004f5e:    f7fbfb05    ....    BL       __aeabi_d2f ; 0x56c
        0x00004f62:    6020         `      STR      r0,[r4,#0]
        0x00004f64:    ed940a01    ....    VLDR     s0,[r4,#4]
        0x00004f68:    ee101a10    ....    VMOV     r1,s0
        0x00004f6c:    4608        .F      MOV      r0,r1
        0x00004f6e:    f7fbfaea    ....    BL       __aeabi_f2d ; 0x546
        0x00004f72:    ec410b19    A...    VMOV     d9,r0,r1
        0x00004f76:    ed9f0b88    ....    VLDR     d0,[pc,#544] ; [0x5198] = 0
        0x00004f7a:    ec532b10    S..+    VMOV     r2,r3,d0
        0x00004f7e:    f7fbfa5a    ..Z.    BL       __aeabi_dmul ; 0x436
        0x00004f82:    ec410b18    A...    VMOV     d8,r0,r1
        0x00004f86:    f7fbfaf1    ....    BL       __aeabi_d2f ; 0x56c
        0x00004f8a:    6060        ``      STR      r0,[r4,#4]
        0x00004f8c:    ed940a02    ....    VLDR     s0,[r4,#8]
        0x00004f90:    ee101a10    ....    VMOV     r1,s0
        0x00004f94:    4608        .F      MOV      r0,r1
        0x00004f96:    f7fbfad6    ....    BL       __aeabi_f2d ; 0x546
        0x00004f9a:    ec410b19    A...    VMOV     d9,r0,r1
        0x00004f9e:    e0ff        ..      B        0x51a0 ; main + 1536
        0x00004fa0:    e1bb        ..      B        0x531a ; main + 1914
    $d
        0x00004fa2:    0000        ..      DCW    0
        0x00004fa4:    02400540    @.@.    DCD    37750080
        0x00004fa8:    f0000801    ....    DCD    4026533889
        0x00004fac:    494e4544    DENI    DCD    1229866308
        0x00004fb0:    00214445    ED!.    DCD    2180165
        0x00004fb4:    636c6557    Welc    DCD    1668048215
        0x00004fb8:    20656d6f    ome     DCD    543518063
        0x00004fbc:    74206f74    to t    DCD    1948282740
        0x00004fc0:    54206568    he T    DCD    1411409256
        0x00004fc4:    20617669    iva     DCD    543258217
        0x00004fc8:    65532043    C Se    DCD    1699946563
        0x00004fcc:    726f736e    nsor    DCD    1919906670
        0x00004fd0:    61745320     Sta    DCD    1635013408
        0x00004fd4:    6e6f6974    tion    DCD    1852795252
        0x00004fd8:    00000021    !...    DCD    33
        0x00004fdc:    4a325b1b    .[2J    DCD    1244814107
        0x00004fe0:    3955504d    MPU9    DCD    961892429
        0x00004fe4:    20303531    150     DCD    540030257
        0x00004fe8:    20776152    Raw     DCD    544694610
        0x00004fec:    6d617845    Exam    DCD    1835104325
        0x00004ff0:    0a656c70    ple.    DCD    174419056
        0x00004ff4:    00000000    ....    DCD    0
        0x00004ff8:    2000066c    l..     DCD    536872556
        0x00004ffc:    f0002003    . ..    DCD    4026540035
        0x00005000:    00030403    ....    DCD    197635
        0x00005004:    40007000    .p.@    DCD    1073770496
        0x00005008:    40005000    .P.@    DCD    1073762304
        0x0000500c:    f0001800    ....    DCD    4026537984
        0x00005010:    f0000400    ....    DCD    4026532864
        0x00005014:    f0005c05    .\..    DCD    4026555397
        0x00005018:    40023000    .0.@    DCD    1073885184
        0x0000501c:    20000678    x..     DCD    536872568
        0x00005020:    2000079c    ...     DCD    536872860
        0x00005024:    000025f1    .%..    DCD    9713
        0x00005028:    706d6f63    comp    DCD    1886220131
        0x0000502c:    5f6d6364    dcm_    DCD    1601004388
        0x00005030:    3975706d    mpu9    DCD    963997805
        0x00005034:    2e303531    150.    DCD    774911281
        0x00005038:    00000063    c...    DCD    99
        0x0000503c:    3e4ccccd    ..L>    DCD    1045220557
        0x00005040:    3f19999a    ...?    DCD    1058642330
        0x00005044:    3ca3d70a    ...<    DCD    1017370378
        0x00005048:    20000808    ...     DCD    536872968
        0x0000504c:    4a325b1b    .[2J    DCD    1244814107
        0x00005050:    00485b1b    .[H.    DCD    4741915
        0x00005054:    3955504d    MPU9    DCD    961892429
        0x00005058:    20303531    150     DCD    540030257
        0x0000505c:    78412d39    9-Ax    DCD    2017537337
        0x00005060:    53207369    is S    DCD    1394635625
        0x00005064:    6c706d69    impl    DCD    1819307369
        0x00005068:    61442065    e Da    DCD    1631854693
        0x0000506c:    41206174    ta A    DCD    1092641140
        0x00005070:    696c7070    ppli    DCD    1768714352
        0x00005074:    69746163    cati    DCD    1769234787
        0x00005078:    45206e6f    on E    DCD    1159753327
        0x0000507c:    706d6178    xamp    DCD    1886216568
        0x00005080:    0a0a656c    le..    DCD    168453484
        0x00005084:    00000000    ....    DCD    0
        0x00005088:    30325b1b    .[20    DCD    808606491
        0x0000508c:    5b1b5847    GX.[    DCD    1528518727
        0x00005090:    7c473133    31G|    DCD    2085040435
        0x00005094:    33345b1b    .[43    DCD    859069211
        0x00005098:    5b1b5947    GY.[    DCD    1528518983
        0x0000509c:    7c473435    54G|    DCD    2085041205
        0x000050a0:    36365b1b    .[66    DCD    909531931
        0x000050a4:    0a0a5a47    GZ..    DCD    168450631
        0x000050a8:    00000000    ....    DCD    0
        0x000050ac:    65636341    Acce    DCD    1701012289
        0x000050b0:    385b1b6c    l.[8    DCD    945494892
        0x000050b4:    5b1b7c47    G|.[    DCD    1528527943
        0x000050b8:    7c473133    31G|    DCD    2085040435
        0x000050bc:    34355b1b    .[54    DCD    875911963
        0x000050c0:    0a0a7c47    G|..    DCD    168459335
        0x000050c4:    00000000    ....    DCD    0
        0x000050c8:    6f727947    Gyro    DCD    1869773127
        0x000050cc:    47385b1b    .[8G    DCD    1194875675
        0x000050d0:    335b1b7c    |.[3    DCD    861608828
        0x000050d4:    1b7c4731    1G|.    DCD    461129521
        0x000050d8:    4734355b    [54G    DCD    1194603867
        0x000050dc:    000a0a7c    |...    DCD    658044
        0x000050e0:    1b67614d    Mag.    DCD    459759949
        0x000050e4:    7c47385b    [8G|    DCD    2085042267
        0x000050e8:    31335b1b    .[31    DCD    825449243
        0x000050ec:    5b1b7c47    G|.[    DCD    1528527943
        0x000050f0:    7c473435    54G|    DCD    2085041205
        0x000050f4:    00000a0a    ....    DCD    2570
        0x000050f8:    325b1b0a    ..[2    DCD    844831498
        0x000050fc:    6f524730    0GRo    DCD    1867663152
        0x00005100:    5b1b6c6c    ll.[    DCD    1528523884
        0x00005104:    7c473133    31G|    DCD    2085040435
        0x00005108:    33345b1b    .[43    DCD    859069211
        0x0000510c:    74695047    GPit    DCD    1953058887
        0x00005110:    5b1b6863    ch.[    DCD    1528522851
        0x00005114:    7c473435    54G|    DCD    2085041205
        0x00005118:    36365b1b    .[66    DCD    909531931
        0x0000511c:    77615947    GYaw    DCD    2002868551
        0x00005120:    00000a0a    ....    DCD    2570
        0x00005124:    656c7545    Eule    DCD    1701606725
        0x00005128:    5b1b7372    rs.[    DCD    1528525682
        0x0000512c:    1b7c4738    8G|.    DCD    461129528
        0x00005130:    4731335b    [31G    DCD    1194406747
        0x00005134:    355b1b7c    |.[5    DCD    895163260
        0x00005138:    0a7c4734    4G|.    DCD    175916852
        0x0000513c:    0000000a    ....    DCD    10
        0x00005140:    315b1b0a    ..[1    DCD    828054282
        0x00005144:    31514737    7GQ1    DCD    827410231
        0x00005148:    36325b1b    .[26    DCD    909269787
        0x0000514c:    5b1b7c47    G|.[    DCD    1528527943
        0x00005150:    51473533    35GQ    DCD    1363621171
        0x00005154:    345b1b32    2.[4    DCD    878385970
        0x00005158:    1b7c4734    4G|.    DCD    461129524
        0x0000515c:    4733355b    [53G    DCD    1194538331
        0x00005160:    5b1b3351    Q3.[    DCD    1528509265
        0x00005164:    7c473236    62G|    DCD    2085040694
        0x00005168:    31375b1b    .[71    DCD    825711387
        0x0000516c:    0a345147    GQ4.    DCD    171200839
        0x00005170:    0000000a    ....    DCD    10
        0x00005174:    385b1b51    Q.[8    DCD    945494865
        0x00005178:    5b1b7c47    G|.[    DCD    1528527943
        0x0000517c:    7c473632    26G|    DCD    2085041714
        0x00005180:    34345b1b    .[44    DCD    875846427
        0x00005184:    5b1b7c47    G|.[    DCD    1528527943
        0x00005188:    7c473236    62G|    DCD    2085040694
        0x0000518c:    00000a0a    ....    DCD    2570
        0x00005190:    20000000    ...     DCD    536870912
        0x00005194:    2000000c    ...     DCD    536870924
        0x00005198:    00000000    ....    DCD    0
        0x0000519c:    412e8480    ...A    DCD    1093567616
    $t
        0x000051a0:    ed1f0b03    ....    VLDR     d0,[pc,#-12] ; [0x5198] = 0
        0x000051a4:    ec532b10    S..+    VMOV     r2,r3,d0
        0x000051a8:    f7fbf945    ..E.    BL       __aeabi_dmul ; 0x436
        0x000051ac:    ec410b18    A...    VMOV     d8,r0,r1
        0x000051b0:    f7fbf9dc    ....    BL       __aeabi_d2f ; 0x56c
        0x000051b4:    60a0        .`      STR      r0,[r4,#8]
        0x000051b6:    ed960a00    ....    VLDR     s0,[r6,#0]
        0x000051ba:    eddf0a58    ..X.    VLDR     s1,[pc,#352] ; [0x531c] = 0x42652ee1
        0x000051be:    ee200a20     . .    VMUL.F32 s0,s0,s1
        0x000051c2:    ed860a00    ....    VSTR     s0,[r6,#0]
        0x000051c6:    ed960a01    ....    VLDR     s0,[r6,#4]
        0x000051ca:    eddf0a54    ..T.    VLDR     s1,[pc,#336] ; [0x531c] = 0x42652ee1
        0x000051ce:    ee200a20     . .    VMUL.F32 s0,s0,s1
        0x000051d2:    ed860a01    ....    VSTR     s0,[r6,#4]
        0x000051d6:    ed960a02    ....    VLDR     s0,[r6,#8]
        0x000051da:    eddf0a50    ..P.    VLDR     s1,[pc,#320] ; [0x531c] = 0x42652ee1
        0x000051de:    ee200a20     . .    VMUL.F32 s0,s0,s1
        0x000051e2:    ed860a02    ....    VSTR     s0,[r6,#8]
        0x000051e6:    ed960a02    ....    VLDR     s0,[r6,#8]
        0x000051ea:    eeb50ac0    ....    VCMPE.F32 s0,#0.0
        0x000051ee:    eef1fa10    ....    VMRS     APSR_nzcv,FPSCR
        0x000051f2:    d207        ..      BCS      0x5204 ; main + 1636
        0x000051f4:    ed960a02    ....    VLDR     s0,[r6,#8]
        0x000051f8:    eddf0a49    ..I.    VLDR     s1,[pc,#292] ; [0x5320] = 0x43b40000
        0x000051fc:    ee300a20    0. .    VADD.F32 s0,s0,s1
        0x00005200:    ed860a02    ....    VSTR     s0,[r6,#8]
        0x00005204:    2500        .%      MOVS     r5,#0
        0x00005206:    e036        6.      B        0x5276 ; main + 1750
        0x00005208:    a803        ..      ADD      r0,sp,#0xc
        0x0000520a:    eb000085    ....    ADD      r0,r0,r5,LSL #2
        0x0000520e:    ed900a00    ....    VLDR     s0,[r0,#0]
        0x00005212:    eebd0ac0    ....    VCVT.S32.F32 s0,s0
        0x00005216:    ee100a10    ....    VMOV     r0,s0
        0x0000521a:    a923        #.      ADD      r1,sp,#0x8c
        0x0000521c:    f8410025    A.%.    STR      r0,[r1,r5,LSL #2]
        0x00005220:    a803        ..      ADD      r0,sp,#0xc
        0x00005222:    eb000085    ....    ADD      r0,r0,r5,LSL #2
        0x00005226:    ed900a00    ....    VLDR     s0,[r0,#0]
        0x0000522a:    eddf0a3e    ..>.    VLDR     s1,[pc,#248] ; [0x5324] = 0x447a0000
        0x0000522e:    ee200a20     . .    VMUL.F32 s0,s0,s1
        0x00005232:    eebd0ac0    ....    VCVT.S32.F32 s0,s0
        0x00005236:    ee100a10    ....    VMOV     r0,s0
        0x0000523a:    a913        ..      ADD      r1,sp,#0x4c
        0x0000523c:    f8410025    A.%.    STR      r0,[r1,r5,LSL #2]
        0x00005240:    a813        ..      ADD      r0,sp,#0x4c
        0x00005242:    f8500025    P.%.    LDR      r0,[r0,r5,LSL #2]
        0x00005246:    a923        #.      ADD      r1,sp,#0x8c
        0x00005248:    f8511025    Q.%.    LDR      r1,[r1,r5,LSL #2]
        0x0000524c:    eb010241    ..A.    ADD      r2,r1,r1,LSL #1
        0x00005250:    ebc211c1    ....    RSB      r1,r2,r1,LSL #7
        0x00005254:    eba000c1    ....    SUB      r0,r0,r1,LSL #3
        0x00005258:    a913        ..      ADD      r1,sp,#0x4c
        0x0000525a:    f8410025    A.%.    STR      r0,[r1,r5,LSL #2]
        0x0000525e:    a813        ..      ADD      r0,sp,#0x4c
        0x00005260:    f8500025    P.%.    LDR      r0,[r0,r5,LSL #2]
        0x00005264:    2800        .(      CMP      r0,#0
        0x00005266:    da05        ..      BGE      0x5274 ; main + 1748
        0x00005268:    a813        ..      ADD      r0,sp,#0x4c
        0x0000526a:    f8500025    P.%.    LDR      r0,[r0,r5,LSL #2]
        0x0000526e:    4240        @B      RSBS     r0,r0,#0
        0x00005270:    f8410025    A.%.    STR      r0,[r1,r5,LSL #2]
        0x00005274:    1c6d        m.      ADDS     r5,r5,#1
        0x00005276:    2d10        .-      CMP      r5,#0x10
        0x00005278:    d3c6        ..      BCC      0x5208 ; main + 1640
        0x0000527a:    a02b        +.      ADR      r0,{pc}+0xae ; 0x5328
        0x0000527c:    9a13        ..      LDR      r2,[sp,#0x4c]
        0x0000527e:    9923        #.      LDR      r1,[sp,#0x8c]
        0x00005280:    f7fff84a    ..J.    BL       UARTprintf ; 0x4318
        0x00005284:    a02c        ,.      ADR      r0,{pc}+0xb4 ; 0x5338
        0x00005286:    9a14        ..      LDR      r2,[sp,#0x50]
        0x00005288:    9924        $.      LDR      r1,[sp,#0x90]
        0x0000528a:    f7fff845    ..E.    BL       UARTprintf ; 0x4318
        0x0000528e:    a02e        ..      ADR      r0,{pc}+0xba ; 0x5348
        0x00005290:    9a15        ..      LDR      r2,[sp,#0x54]
        0x00005292:    9925        %.      LDR      r1,[sp,#0x94]
        0x00005294:    f7fff840    ..@.    BL       UARTprintf ; 0x4318
        0x00005298:    a02f        /.      ADR      r0,{pc}+0xc0 ; 0x5358
        0x0000529a:    9a16        ..      LDR      r2,[sp,#0x58]
        0x0000529c:    9926        &.      LDR      r1,[sp,#0x98]
        0x0000529e:    f7fff83b    ..;.    BL       UARTprintf ; 0x4318
        0x000052a2:    a031        1.      ADR      r0,{pc}+0xc6 ; 0x5368
        0x000052a4:    9a17        ..      LDR      r2,[sp,#0x5c]
        0x000052a6:    9927        '.      LDR      r1,[sp,#0x9c]
        0x000052a8:    f7fff836    ..6.    BL       UARTprintf ; 0x4318
        0x000052ac:    a032        2.      ADR      r0,{pc}+0xcc ; 0x5378
        0x000052ae:    9a18        ..      LDR      r2,[sp,#0x60]
        0x000052b0:    9928        (.      LDR      r1,[sp,#0xa0]
        0x000052b2:    f7fff831    ..1.    BL       UARTprintf ; 0x4318
        0x000052b6:    a034        4.      ADR      r0,{pc}+0xd2 ; 0x5388
        0x000052b8:    9a19        ..      LDR      r2,[sp,#0x64]
        0x000052ba:    9929        ).      LDR      r1,[sp,#0xa4]
        0x000052bc:    f7fff82c    ..,.    BL       UARTprintf ; 0x4318
        0x000052c0:    a035        5.      ADR      r0,{pc}+0xd8 ; 0x5398
        0x000052c2:    9a1a        ..      LDR      r2,[sp,#0x68]
        0x000052c4:    992a        *.      LDR      r1,[sp,#0xa8]
        0x000052c6:    f7fff827    ..'.    BL       UARTprintf ; 0x4318
        0x000052ca:    a037        7.      ADR      r0,{pc}+0xde ; 0x53a8
        0x000052cc:    9a1b        ..      LDR      r2,[sp,#0x6c]
        0x000052ce:    992b        +.      LDR      r1,[sp,#0xac]
        0x000052d0:    f7fff822    ..".    BL       UARTprintf ; 0x4318
        0x000052d4:    a038        8.      ADR      r0,{pc}+0xe4 ; 0x53b8
        0x000052d6:    9a1c        ..      LDR      r2,[sp,#0x70]
        0x000052d8:    992c        ,.      LDR      r1,[sp,#0xb0]
        0x000052da:    f7fff81d    ....    BL       UARTprintf ; 0x4318
        0x000052de:    a03b        ;.      ADR      r0,{pc}+0xee ; 0x53cc
        0x000052e0:    9a1d        ..      LDR      r2,[sp,#0x74]
        0x000052e2:    992d        -.      LDR      r1,[sp,#0xb4]
        0x000052e4:    f7fff818    ....    BL       UARTprintf ; 0x4318
        0x000052e8:    a03d        =.      ADR      r0,{pc}+0xf8 ; 0x53e0
        0x000052ea:    9a1e        ..      LDR      r2,[sp,#0x78]
        0x000052ec:    992e        ..      LDR      r1,[sp,#0xb8]
        0x000052ee:    f7fff813    ....    BL       UARTprintf ; 0x4318
        0x000052f2:    a040        @.      ADR      r0,{pc}+0x102 ; 0x53f4
        0x000052f4:    9a1f        ..      LDR      r2,[sp,#0x7c]
        0x000052f6:    992f        /.      LDR      r1,[sp,#0xbc]
        0x000052f8:    f7fff80e    ....    BL       UARTprintf ; 0x4318
        0x000052fc:    a042        B.      ADR      r0,{pc}+0x10c ; 0x5408
        0x000052fe:    9a20         .      LDR      r2,[sp,#0x80]
        0x00005300:    9930        0.      LDR      r1,[sp,#0xc0]
        0x00005302:    f7fff809    ....    BL       UARTprintf ; 0x4318
        0x00005306:    a045        E.      ADR      r0,{pc}+0x116 ; 0x541c
        0x00005308:    9a21        !.      LDR      r2,[sp,#0x84]
        0x0000530a:    9931        1.      LDR      r1,[sp,#0xc4]
        0x0000530c:    f7fff804    ....    BL       UARTprintf ; 0x4318
        0x00005310:    a047        G.      ADR      r0,{pc}+0x120 ; 0x5430
        0x00005312:    9a22        ".      LDR      r2,[sp,#0x88]
        0x00005314:    9932        2.      LDR      r1,[sp,#0xc8]
        0x00005316:    f7feffff    ....    BL       UARTprintf ; 0x4318
        0x0000531a:    e56b        k.      B        0x4df4 ; main + 596
    $d
        0x0000531c:    42652ee1    ..eB    DCD    1113927393
        0x00005320:    43b40000    ...C    DCD    1135869952
        0x00005324:    447a0000    ..zD    DCD    1148846080
        0x00005328:    3b355b1b    .[5;    DCD    993352475
        0x0000532c:    25483731    17H%    DCD    625489713
        0x00005330:    252e6433    3d.%    DCD    623797299
        0x00005334:    00643330    03d.    DCD    6566704
        0x00005338:    3b355b1b    .[5;    DCD    993352475
        0x0000533c:    25483034    40H%    DCD    625487924
        0x00005340:    252e6433    3d.%    DCD    623797299
        0x00005344:    00643330    03d.    DCD    6566704
        0x00005348:    3b355b1b    .[5;    DCD    993352475
        0x0000534c:    25483336    63H%    DCD    625488694
        0x00005350:    252e6433    3d.%    DCD    623797299
        0x00005354:    00643330    03d.    DCD    6566704
        0x00005358:    3b375b1b    .[7;    DCD    993483547
        0x0000535c:    25483731    17H%    DCD    625489713
        0x00005360:    252e6433    3d.%    DCD    623797299
        0x00005364:    00643330    03d.    DCD    6566704
        0x00005368:    3b375b1b    .[7;    DCD    993483547
        0x0000536c:    25483034    40H%    DCD    625487924
        0x00005370:    252e6433    3d.%    DCD    623797299
        0x00005374:    00643330    03d.    DCD    6566704
        0x00005378:    3b375b1b    .[7;    DCD    993483547
        0x0000537c:    25483336    63H%    DCD    625488694
        0x00005380:    252e6433    3d.%    DCD    623797299
        0x00005384:    00643330    03d.    DCD    6566704
        0x00005388:    3b395b1b    .[9;    DCD    993614619
        0x0000538c:    25483731    17H%    DCD    625489713
        0x00005390:    252e6433    3d.%    DCD    623797299
        0x00005394:    00643330    03d.    DCD    6566704
        0x00005398:    3b395b1b    .[9;    DCD    993614619
        0x0000539c:    25483034    40H%    DCD    625487924
        0x000053a0:    252e6433    3d.%    DCD    623797299
        0x000053a4:    00643330    03d.    DCD    6566704
        0x000053a8:    3b395b1b    .[9;    DCD    993614619
        0x000053ac:    25483336    63H%    DCD    625488694
        0x000053b0:    252e6433    3d.%    DCD    623797299
        0x000053b4:    00643330    03d.    DCD    6566704
        0x000053b8:    34315b1b    .[14    DCD    875649819
        0x000053bc:    4837313b    ;17H    DCD    1211576635
        0x000053c0:    2e643325    %3d.    DCD    778318629
        0x000053c4:    64333025    %03d    DCD    1681076261
        0x000053c8:    00000000    ....    DCD    0
        0x000053cc:    34315b1b    .[14    DCD    875649819
        0x000053d0:    4830343b    ;40H    DCD    1211118651
        0x000053d4:    2e643325    %3d.    DCD    778318629
        0x000053d8:    64333025    %03d    DCD    1681076261
        0x000053dc:    00000000    ....    DCD    0
        0x000053e0:    34315b1b    .[14    DCD    875649819
        0x000053e4:    4833363b    ;63H    DCD    1211315771
        0x000053e8:    2e643325    %3d.    DCD    778318629
        0x000053ec:    64333025    %03d    DCD    1681076261
        0x000053f0:    00000000    ....    DCD    0
        0x000053f4:    39315b1b    .[19    DCD    959535899
        0x000053f8:    4834313b    ;14H    DCD    1211380027
        0x000053fc:    2e643325    %3d.    DCD    778318629
        0x00005400:    64333025    %03d    DCD    1681076261
        0x00005404:    00000000    ....    DCD    0
        0x00005408:    39315b1b    .[19    DCD    959535899
        0x0000540c:    4832333b    ;32H    DCD    1211249467
        0x00005410:    2e643325    %3d.    DCD    778318629
        0x00005414:    64333025    %03d    DCD    1681076261
        0x00005418:    00000000    ....    DCD    0
        0x0000541c:    39315b1b    .[19    DCD    959535899
        0x00005420:    4830353b    ;50H    DCD    1211118907
        0x00005424:    2e643325    %3d.    DCD    778318629
        0x00005428:    64333025    %03d    DCD    1681076261
        0x0000542c:    00000000    ....    DCD    0
        0x00005430:    39315b1b    .[19    DCD    959535899
        0x00005434:    4838363b    ;68H    DCD    1211643451
        0x00005438:    2e643325    %3d.    DCD    778318629
        0x0000543c:    64333025    %03d    DCD    1681076261
        0x00005440:    00000000    ....    DCD    0
    $t
    i.sqrtf
    sqrtf
        0x00005444:    b510        ..      PUSH     {r4,lr}
        0x00005446:    ee000a10    ....    VMOV     s0,r0
        0x0000544a:    ed2d8b02    -...    VPUSH    {d8}
        0x0000544e:    eeb18ac0    ....    VSQRT.F32 s16,s0
        0x00005452:    ee180a10    ....    VMOV     r0,s16
        0x00005456:    f0204000     ..@    BIC      r0,r0,#0x80000000
        0x0000545a:    f1c040ff    ...@    RSB      r0,r0,#0x7f800000
        0x0000545e:    0fc0        ..      LSRS     r0,r0,#31
        0x00005460:    d00a        ..      BEQ      0x5478 ; sqrtf + 52
        0x00005462:    ee100a10    ....    VMOV     r0,s0
        0x00005466:    f0204000     ..@    BIC      r0,r0,#0x80000000
        0x0000546a:    f1c040ff    ...@    RSB      r0,r0,#0x7f800000
        0x0000546e:    0fc0        ..      LSRS     r0,r0,#31
        0x00005470:    bf04        ..      ITT      EQ
        0x00005472:    2001        .       MOVEQ    r0,#1
        0x00005474:    f7fffb58    ..X.    BLEQ     __set_errno ; 0x4b28
        0x00005478:    ee180a10    ....    VMOV     r0,s16
        0x0000547c:    ecbd8b02    ....    VPOP     {d8}
        0x00005480:    bd10        ..      POP      {r4,pc}
        0x00005482:    0000        ..      MOVS     r0,r0
    $d.realdata
    .constdata
    g_pcHex
        0x00005484:    00005b00    .[..    DCD    23296
    g_ui32UARTBase
        0x00005488:    4000c000    ...@    DCD    1073790976
        0x0000548c:    4000d000    ...@    DCD    1073795072
        0x00005490:    4000e000    ...@    DCD    1073799168
    g_ui32UARTInt
        0x00005494:    00000015    ....    DCD    21
        0x00005498:    00000016    ....    DCD    22
        0x0000549c:    00000031    1...    DCD    49
    g_ui32UARTPeriph
        0x000054a0:    f0001800    ....    DCD    4026537984
        0x000054a4:    f0001801    ....    DCD    4026537985
        0x000054a8:    f0001802    ....    DCD    4026537986
    .constdata
    g_ppui32GPIOIntMapBlizzard
        0x000054ac:    40004000    .@.@    DCD    1073758208
        0x000054b0:    00000010    ....    DCD    16
        0x000054b4:    40058000    ...@    DCD    1074102272
        0x000054b8:    00000010    ....    DCD    16
        0x000054bc:    40005000    .P.@    DCD    1073762304
        0x000054c0:    00000011    ....    DCD    17
        0x000054c4:    40059000    ...@    DCD    1074106368
        0x000054c8:    00000011    ....    DCD    17
        0x000054cc:    40006000    .`.@    DCD    1073766400
        0x000054d0:    00000012    ....    DCD    18
        0x000054d4:    4005a000    ...@    DCD    1074110464
        0x000054d8:    00000012    ....    DCD    18
        0x000054dc:    40007000    .p.@    DCD    1073770496
        0x000054e0:    00000013    ....    DCD    19
        0x000054e4:    4005b000    ...@    DCD    1074114560
        0x000054e8:    00000013    ....    DCD    19
        0x000054ec:    40024000    .@.@    DCD    1073889280
        0x000054f0:    00000014    ....    DCD    20
        0x000054f4:    4005c000    ...@    DCD    1074118656
        0x000054f8:    00000014    ....    DCD    20
        0x000054fc:    40025000    .P.@    DCD    1073893376
        0x00005500:    0000002e    ....    DCD    46
        0x00005504:    4005d000    ...@    DCD    1074122752
        0x00005508:    0000002e    ....    DCD    46
        0x0000550c:    40026000    .`.@    DCD    1073897472
        0x00005510:    0000002f    /...    DCD    47
        0x00005514:    4005e000    ...@    DCD    1074126848
        0x00005518:    0000002f    /...    DCD    47
        0x0000551c:    40027000    .p.@    DCD    1073901568
        0x00005520:    00000030    0...    DCD    48
        0x00005524:    4005f000    ...@    DCD    1074130944
        0x00005528:    00000030    0...    DCD    48
        0x0000552c:    4003d000    ...@    DCD    1073991680
        0x00005530:    00000046    F...    DCD    70
        0x00005534:    40060000    ...@    DCD    1074135040
        0x00005538:    00000046    F...    DCD    70
        0x0000553c:    40061000    ...@    DCD    1074139136
        0x00005540:    00000047    G...    DCD    71
        0x00005544:    40062000    . .@    DCD    1074143232
        0x00005548:    00000048    H...    DCD    72
        0x0000554c:    40063000    .0.@    DCD    1074147328
        0x00005550:    0000007f    ....    DCD    127
        0x00005554:    40064000    .@.@    DCD    1074151424
        0x00005558:    00000080    ....    DCD    128
        0x0000555c:    40065000    .P.@    DCD    1074155520
        0x00005560:    00000084    ....    DCD    132
        0x00005564:    40066000    .`.@    DCD    1074159616
        0x00005568:    0000008c    ....    DCD    140
    g_ppui32GPIOIntMapSnowflake
        0x0000556c:    40004000    .@.@    DCD    1073758208
        0x00005570:    00000010    ....    DCD    16
        0x00005574:    40058000    ...@    DCD    1074102272
        0x00005578:    00000010    ....    DCD    16
        0x0000557c:    40005000    .P.@    DCD    1073762304
        0x00005580:    00000011    ....    DCD    17
        0x00005584:    40059000    ...@    DCD    1074106368
        0x00005588:    00000011    ....    DCD    17
        0x0000558c:    40006000    .`.@    DCD    1073766400
        0x00005590:    00000012    ....    DCD    18
        0x00005594:    4005a000    ...@    DCD    1074110464
        0x00005598:    00000012    ....    DCD    18
        0x0000559c:    40007000    .p.@    DCD    1073770496
        0x000055a0:    00000013    ....    DCD    19
        0x000055a4:    4005b000    ...@    DCD    1074114560
        0x000055a8:    00000013    ....    DCD    19
        0x000055ac:    40024000    .@.@    DCD    1073889280
        0x000055b0:    00000014    ....    DCD    20
        0x000055b4:    4005c000    ...@    DCD    1074118656
        0x000055b8:    00000014    ....    DCD    20
        0x000055bc:    40025000    .P.@    DCD    1073893376
        0x000055c0:    0000002e    ....    DCD    46
        0x000055c4:    4005d000    ...@    DCD    1074122752
        0x000055c8:    0000002e    ....    DCD    46
        0x000055cc:    40026000    .`.@    DCD    1073897472
        0x000055d0:    0000002f    /...    DCD    47
        0x000055d4:    4005e000    ...@    DCD    1074126848
        0x000055d8:    0000002f    /...    DCD    47
        0x000055dc:    40027000    .p.@    DCD    1073901568
        0x000055e0:    00000030    0...    DCD    48
        0x000055e4:    4005f000    ...@    DCD    1074130944
        0x000055e8:    00000030    0...    DCD    48
        0x000055ec:    4003d000    ...@    DCD    1073991680
        0x000055f0:    00000043    C...    DCD    67
        0x000055f4:    40060000    ...@    DCD    1074135040
        0x000055f8:    00000043    C...    DCD    67
        0x000055fc:    40061000    ...@    DCD    1074139136
        0x00005600:    00000044    D...    DCD    68
        0x00005604:    40062000    . .@    DCD    1074143232
        0x00005608:    00000045    E...    DCD    69
        0x0000560c:    40063000    .0.@    DCD    1074147328
        0x00005610:    00000058    X...    DCD    88
        0x00005614:    40064000    .@.@    DCD    1074151424
        0x00005618:    00000059    Y...    DCD    89
        0x0000561c:    40065000    .P.@    DCD    1074155520
        0x00005620:    0000005c    \...    DCD    92
        0x00005624:    40066000    .`.@    DCD    1074159616
        0x00005628:    00000064    d...    DCD    100
    g_pui32GPIOBaseAddrs
        0x0000562c:    40004000    .@.@    DCD    1073758208
        0x00005630:    40058000    ...@    DCD    1074102272
        0x00005634:    40005000    .P.@    DCD    1073762304
        0x00005638:    40059000    ...@    DCD    1074106368
        0x0000563c:    40006000    .`.@    DCD    1073766400
        0x00005640:    4005a000    ...@    DCD    1074110464
        0x00005644:    40007000    .p.@    DCD    1073770496
        0x00005648:    4005b000    ...@    DCD    1074114560
        0x0000564c:    40024000    .@.@    DCD    1073889280
        0x00005650:    4005c000    ...@    DCD    1074118656
        0x00005654:    40025000    .P.@    DCD    1073893376
        0x00005658:    4005d000    ...@    DCD    1074122752
        0x0000565c:    40026000    .`.@    DCD    1073897472
        0x00005660:    4005e000    ...@    DCD    1074126848
        0x00005664:    40027000    .p.@    DCD    1073901568
        0x00005668:    4005f000    ...@    DCD    1074130944
        0x0000566c:    4003d000    ...@    DCD    1073991680
        0x00005670:    40060000    ...@    DCD    1074135040
        0x00005674:    40061000    ...@    DCD    1074139136
        0x00005678:    40061000    ...@    DCD    1074139136
        0x0000567c:    40062000    . .@    DCD    1074143232
        0x00005680:    40062000    . .@    DCD    1074143232
        0x00005684:    40063000    .0.@    DCD    1074147328
        0x00005688:    40063000    .0.@    DCD    1074147328
        0x0000568c:    40064000    .@.@    DCD    1074151424
        0x00005690:    40064000    .@.@    DCD    1074151424
        0x00005694:    40065000    .P.@    DCD    1074155520
        0x00005698:    40065000    .P.@    DCD    1074155520
        0x0000569c:    40066000    .`.@    DCD    1074159616
        0x000056a0:    40066000    .`.@    DCD    1074159616
        0x000056a4:    40067000    .p.@    DCD    1074163712
        0x000056a8:    40067000    .p.@    DCD    1074163712
        0x000056ac:    40068000    ...@    DCD    1074167808
        0x000056b0:    40068000    ...@    DCD    1074167808
        0x000056b4:    40069000    ...@    DCD    1074171904
        0x000056b8:    40069000    ...@    DCD    1074171904
    .constdata
    g_pui32VCOFrequencies
        0x000056bc:    1312d000    ....    DCD    320000000
        0x000056c0:    1c9c3800    .8..    DCD    480000000
    g_pui32Xtals
        0x000056c4:    000f4240    @B..    DCD    1000000
        0x000056c8:    001c2000    . ..    DCD    1843200
        0x000056cc:    001e8480    ....    DCD    2000000
        0x000056d0:    00258000    ..%.    DCD    2457600
        0x000056d4:    00369e99    ..6.    DCD    3579545
        0x000056d8:    00384000    .@8.    DCD    3686400
        0x000056dc:    003d0900    ..=.    DCD    4000000
        0x000056e0:    003e8000    ..>.    DCD    4096000
        0x000056e4:    004b0000    ..K.    DCD    4915200
        0x000056e8:    004c4b40    @KL.    DCD    5000000
        0x000056ec:    004e2000    . N.    DCD    5120000
        0x000056f0:    005b8d80    ..[.    DCD    6000000
        0x000056f4:    005dc000    ..].    DCD    6144000
        0x000056f8:    00708000    ..p.    DCD    7372800
        0x000056fc:    007a1200    ..z.    DCD    8000000
        0x00005700:    007d0000    ..}.    DCD    8192000
        0x00005704:    00989680    ....    DCD    10000000
        0x00005708:    00b71b00    ....    DCD    12000000
        0x0000570c:    00bb8000    ....    DCD    12288000
        0x00005710:    00cee8c0    ....    DCD    13560000
        0x00005714:    00da7a64    dz..    DCD    14318180
        0x00005718:    00f42400    .$..    DCD    16000000
        0x0000571c:    00fa0000    ....    DCD    16384000
        0x00005720:    0112a880    ....    DCD    18000000
        0x00005724:    01312d00    .-1.    DCD    20000000
        0x00005728:    016e3600    .6n.    DCD    24000000
        0x0000572c:    017d7840    @x}.    DCD    25000000
    g_pppui32XTALtoVCO
        0x00005730:    00000040    @...    DCD    64
        0x00005734:    00000000    ....    DCD    0
        0x00005738:    0008003e    >...    DCD    524350
        0x0000573c:    00000000    ....    DCD    0
        0x00005740:    000000a0    ....    DCD    160
        0x00005744:    00000002    ....    DCD    2
        0x00005748:    00015434    4T..    DCD    87092
        0x0000574c:    00000000    ....    DCD    0
        0x00005750:    0006702b    +p..    DCD    421931
        0x00005754:    00000000    ....    DCD    0
        0x00005758:    00000028    (...    DCD    40
        0x0000575c:    00000000    ....    DCD    0
        0x00005760:    00010027    '...    DCD    65575
        0x00005764:    00000000    ....    DCD    0
        0x00005768:    00000020     ...    DCD    32
        0x0000576c:    00000000    ....    DCD    0
        0x00005770:    00000050    P...    DCD    80
        0x00005774:    00000002    ....    DCD    2
        0x00005778:    0000ac1a    ....    DCD    44058
        0x0000577c:    00000000    ....    DCD    0
        0x00005780:    00099417    ....    DCD    627735
        0x00005784:    00000000    ....    DCD    0
        0x00005788:    00059816    ....    DCD    366614
        0x0000578c:    00000000    ....    DCD    0
        0x00005790:    00000014    ....    DCD    20
        0x00005794:    00000000    ....    DCD    0
        0x00005798:    00088013    ....    DCD    557075
        0x0000579c:    00000000    ....    DCD    0
        0x000057a0:    000000a0    ....    DCD    160
        0x000057a4:    00000008    ....    DCD    8
        0x000057a8:    00000010    ....    DCD    16
        0x000057ac:    00000000    ....    DCD    0
        0x000057b0:    00000028    (...    DCD    40
        0x000057b4:    00000002    ....    DCD    2
        0x000057b8:    00000040    @...    DCD    64
        0x000057bc:    00000004    ....    DCD    4
        0x000057c0:    00000060    `...    DCD    96
        0x000057c4:    00000000    ....    DCD    0
        0x000057c8:    000c005d    ]...    DCD    786525
        0x000057cc:    00000000    ....    DCD    0
        0x000057d0:    00000050    P...    DCD    80
        0x000057d4:    00000000    ....    DCD    0
        0x000057d8:    0002004e    N...    DCD    131150
        0x000057dc:    00000000    ....    DCD    0
        0x000057e0:    0001ac41    A...    DCD    109633
        0x000057e4:    00000000    ....    DCD    0
        0x000057e8:    0000003c    <...    DCD    60
        0x000057ec:    00000000    ....    DCD    0
        0x000057f0:    0009803a    :...    DCD    622650
        0x000057f4:    00000000    ....    DCD    0
        0x000057f8:    00000030    0...    DCD    48
        0x000057fc:    00000000    ....    DCD    0
        0x00005800:    00000028    (...    DCD    40
        0x00005804:    00000000    ....    DCD    0
        0x00005808:    00010027    '...    DCD    65575
        0x0000580c:    00000000    ....    DCD    0
        0x00005810:    00066023    #`..    DCD    417827
        0x00005814:    00000000    ....    DCD    0
        0x00005818:    00086021    !`..    DCD    548897
        0x0000581c:    00000000    ....    DCD    0
        0x00005820:    0000001e    ....    DCD    30
        0x00005824:    00000000    ....    DCD    0
        0x00005828:    0004c01d    ....    DCD    311325
        0x0000582c:    00000000    ....    DCD    0
        0x00005830:    00000050    P...    DCD    80
        0x00005834:    00000002    ....    DCD    2
        0x00005838:    00000018    ....    DCD    24
        0x0000583c:    00000000    ....    DCD    0
        0x00005840:    00000014    ....    DCD    20
        0x00005844:    00000000    ....    DCD    0
        0x00005848:    00000060    `...    DCD    96
        0x0000584c:    00000004    ....    DCD    4
    g_sXTALtoMEMTIM
        0x00005850:    00f42400    .$..    DCD    16000000
        0x00005854:    00300030    0.0.    DCD    3145776
        0x00005858:    02625a00    .Zb.    DCD    40000000
        0x0000585c:    00110091    ....    DCD    1114257
        0x00005860:    03938700    ....    DCD    60000000
        0x00005864:    00d200d2    ....    DCD    13762770
        0x00005868:    04c4b400    ....    DCD    80000000
        0x0000586c:    01130113    ....    DCD    18022675
        0x00005870:    05f5e100    ....    DCD    100000000
        0x00005874:    01540154    T.T.    DCD    22282580
        0x00005878:    07270e00    ..'.    DCD    120000000
        0x0000587c:    01950195    ....    DCD    26542485
    .constdata
    g_ppui32UARTIntMap
        0x00005880:    4000c000    ...@    DCD    1073790976
        0x00005884:    00000015    ....    DCD    21
        0x00005888:    4000d000    ...@    DCD    1073795072
        0x0000588c:    00000016    ....    DCD    22
        0x00005890:    4000e000    ...@    DCD    1073799168
        0x00005894:    00000031    1...    DCD    49
        0x00005898:    4000f000    ...@    DCD    1073803264
        0x0000589c:    0000004b    K...    DCD    75
        0x000058a0:    40010000    ...@    DCD    1073807360
        0x000058a4:    0000004c    L...    DCD    76
        0x000058a8:    40011000    ...@    DCD    1073811456
        0x000058ac:    0000004d    M...    DCD    77
        0x000058b0:    40012000    . .@    DCD    1073815552
        0x000058b4:    0000004e    N...    DCD    78
        0x000058b8:    40013000    .0.@    DCD    1073819648
        0x000058bc:    0000004f    O...    DCD    79
    g_ppui32UARTIntMapSnowflake
        0x000058c0:    4000c000    ...@    DCD    1073790976
        0x000058c4:    00000015    ....    DCD    21
        0x000058c8:    4000d000    ...@    DCD    1073795072
        0x000058cc:    00000016    ....    DCD    22
        0x000058d0:    4000e000    ...@    DCD    1073799168
        0x000058d4:    00000031    1...    DCD    49
        0x000058d8:    4000f000    ...@    DCD    1073803264
        0x000058dc:    00000048    H...    DCD    72
        0x000058e0:    40010000    ...@    DCD    1073807360
        0x000058e4:    00000049    I...    DCD    73
        0x000058e8:    40011000    ...@    DCD    1073811456
        0x000058ec:    0000004a    J...    DCD    74
        0x000058f0:    40012000    . .@    DCD    1073815552
        0x000058f4:    0000004b    K...    DCD    75
        0x000058f8:    40013000    .0.@    DCD    1073819648
        0x000058fc:    0000004c    L...    DCD    76
    .constdata
    g_fMPU9150AccelFactors
        0x00005900:    3a1ce7e4    ...:    DCD    974972900
        0x00005904:    3a9ce7e4    ...:    DCD    983361508
        0x00005908:    3b1ce7e4    ...;    DCD    991750116
        0x0000590c:    3b9ce7e4    ...;    DCD    1000138724
    g_fMPU9150GyroFactors
        0x00005910:    390bb3fd    ...9    DCD    957068285
        0x00005914:    398bb3fd    ...9    DCD    965456893
        0x00005918:    3a0b7d79    y}.:    DCD    973831545
        0x0000591c:    3a8b7d79    y}.:    DCD    982220153
    .constdata
    g_ppui32I2CIntMap
        0x00005920:    40020000    ...@    DCD    1073872896
        0x00005924:    00000018    ....    DCD    24
        0x00005928:    40021000    ...@    DCD    1073876992
        0x0000592c:    00000035    5...    DCD    53
        0x00005930:    40022000    . .@    DCD    1073881088
        0x00005934:    00000054    T...    DCD    84
        0x00005938:    40023000    .0.@    DCD    1073885184
        0x0000593c:    00000055    U...    DCD    85
        0x00005940:    400c0000    ...@    DCD    1074528256
        0x00005944:    0000007d    }...    DCD    125
        0x00005948:    400c1000    ...@    DCD    1074532352
        0x0000594c:    0000007e    ~...    DCD    126
    g_ppui32I2CIntMapSnowflake
        0x00005950:    40020000    ...@    DCD    1073872896
        0x00005954:    00000018    ....    DCD    24
        0x00005958:    40021000    ...@    DCD    1073876992
        0x0000595c:    00000035    5...    DCD    53
        0x00005960:    40022000    . .@    DCD    1073881088
        0x00005964:    0000004d    M...    DCD    77
        0x00005968:    40023000    .0.@    DCD    1073885184
        0x0000596c:    0000004e    N...    DCD    78
        0x00005970:    400c0000    ...@    DCD    1074528256
        0x00005974:    00000056    V...    DCD    86
        0x00005978:    400c1000    ...@    DCD    1074532352
        0x0000597c:    00000057    W...    DCD    87
        0x00005980:    400c2000    . .@    DCD    1074536448
        0x00005984:    00000076    v...    DCD    118
        0x00005988:    400c3000    .0.@    DCD    1074540544
        0x0000598c:    00000077    w...    DCD    119
        0x00005990:    400b8000    ...@    DCD    1074495488
        0x00005994:    0000007d    }...    DCD    125
        0x00005998:    400b9000    ...@    DCD    1074499584
        0x0000599c:    0000007e    ~...    DCD    126
    .constdata
    g_pui32Priority
        0x000059a0:    00000700    ....    DCD    1792
        0x000059a4:    00000600    ....    DCD    1536
        0x000059a8:    00000500    ....    DCD    1280
        0x000059ac:    00000400    ....    DCD    1024
        0x000059b0:    00000300    ....    DCD    768
        0x000059b4:    00000200    ....    DCD    512
        0x000059b8:    00000100    ....    DCD    256
        0x000059bc:    00000000    ....    DCD    0
    g_pui32Regs
        0x000059c0:    00000000    ....    DCD    0
        0x000059c4:    e000ed18    ....    DCD    3758157080
        0x000059c8:    e000ed1c    ....    DCD    3758157084
        0x000059cc:    e000ed20     ...    DCD    3758157088
        0x000059d0:    e000e400    ....    DCD    3758154752
        0x000059d4:    e000e404    ....    DCD    3758154756
        0x000059d8:    e000e408    ....    DCD    3758154760
        0x000059dc:    e000e40c    ....    DCD    3758154764
        0x000059e0:    e000e410    ....    DCD    3758154768
        0x000059e4:    e000e414    ....    DCD    3758154772
        0x000059e8:    e000e418    ....    DCD    3758154776
        0x000059ec:    e000e41c    ....    DCD    3758154780
        0x000059f0:    e000e420     ...    DCD    3758154784
        0x000059f4:    e000e424    $...    DCD    3758154788
        0x000059f8:    e000e428    (...    DCD    3758154792
        0x000059fc:    e000e42c    ,...    DCD    3758154796
        0x00005a00:    e000e430    0...    DCD    3758154800
        0x00005a04:    e000e434    4...    DCD    3758154804
        0x00005a08:    e000e438    8...    DCD    3758154808
        0x00005a0c:    e000e43c    <...    DCD    3758154812
        0x00005a10:    e000e440    @...    DCD    3758154816
        0x00005a14:    e000e444    D...    DCD    3758154820
        0x00005a18:    e000e448    H...    DCD    3758154824
        0x00005a1c:    e000e44c    L...    DCD    3758154828
        0x00005a20:    e000e450    P...    DCD    3758154832
        0x00005a24:    e000e454    T...    DCD    3758154836
        0x00005a28:    e000e458    X...    DCD    3758154840
        0x00005a2c:    e000e45c    \...    DCD    3758154844
        0x00005a30:    e000e460    `...    DCD    3758154848
        0x00005a34:    e000e464    d...    DCD    3758154852
        0x00005a38:    e000e468    h...    DCD    3758154856
        0x00005a3c:    e000e46c    l...    DCD    3758154860
        0x00005a40:    e000e470    p...    DCD    3758154864
        0x00005a44:    e000e474    t...    DCD    3758154868
        0x00005a48:    e000e478    x...    DCD    3758154872
        0x00005a4c:    e000e47c    |...    DCD    3758154876
        0x00005a50:    e000e480    ....    DCD    3758154880
        0x00005a54:    e000e484    ....    DCD    3758154884
        0x00005a58:    e000e488    ....    DCD    3758154888
    g_pui32EnRegs
        0x00005a5c:    e000e100    ....    DCD    3758153984
        0x00005a60:    e000e104    ....    DCD    3758153988
        0x00005a64:    e000e108    ....    DCD    3758153992
        0x00005a68:    e000e10c    ....    DCD    3758153996
        0x00005a6c:    e000e110    ....    DCD    3758154000
    g_pui32Dii16Regs
        0x00005a70:    e000e180    ....    DCD    3758154112
        0x00005a74:    e000e184    ....    DCD    3758154116
        0x00005a78:    e000e188    ....    DCD    3758154120
        0x00005a7c:    e000e18c    ....    DCD    3758154124
        0x00005a80:    e000e190    ....    DCD    3758154128
    g_pui32PendRegs
        0x00005a84:    e000e200    ....    DCD    3758154240
        0x00005a88:    e000e204    ....    DCD    3758154244
        0x00005a8c:    e000e208    ....    DCD    3758154248
        0x00005a90:    e000e20c    ....    DCD    3758154252
        0x00005a94:    e000e210    ....    DCD    3758154256
    g_pui32UnpendRegs
        0x00005a98:    e000e280    ....    DCD    3758154368
        0x00005a9c:    e000e284    ....    DCD    3758154372
        0x00005aa0:    e000e288    ....    DCD    3758154376
        0x00005aa4:    e000e28c    ....    DCD    3758154380
        0x00005aa8:    e000e290    ....    DCD    3758154384
    .conststring
        0x00005aac:    6f727245    Erro    DCD    1869771333
        0x00005ab0:    25203a72    r: %    DCD    622869106
        0x00005ab4:    46202c64    d, F    DCD    1176513636
        0x00005ab8:    3a656c69    ile:    DCD    979725417
        0x00005abc:    2c732520     %s,    DCD    745743648
        0x00005ac0:    6e694c20     Lin    DCD    1852394528
        0x00005ac4:    25203a65    e: %    DCD    622869093
        0x00005ac8:    65530a64    d.Se    DCD    1699940964
        0x00005acc:    32492065    e I2    DCD    843653221
        0x00005ad0:    74732043    C st    DCD    1953701955
        0x00005ad4:    73757461    atus    DCD    1937077345
        0x00005ad8:    66656420     def    DCD    1717920800
        0x00005adc:    74696e69    init    DCD    1953066601
        0x00005ae0:    736e6f69    ions    DCD    1936617321
        0x00005ae4:    206e6920     in     DCD    544106784
        0x00005ae8:    736e6573    sens    DCD    1936614771
        0x00005aec:    696c726f    orli    DCD    1768714863
        0x00005af0:    32695c62    b\i2    DCD    845765730
        0x00005af4:    645f6d63    cm_d    DCD    1683975523
        0x00005af8:    682e7672    rv.h    DCD    1747875442
        0x00005afc:    0000000a    ....    DCD    10
    .conststring
        0x00005b00:    33323130    0123    DCD    858927408
        0x00005b04:    37363534    4567    DCD    926299444
        0x00005b08:    62613938    89ab    DCD    1650538808
        0x00005b0c:    66656463    cdef    DCD    1717920867
        0x00005b10:    00000000    ....    DCD    0
    Region$$Table$$Base
        0x00005b14:    00005b34    4[..    DCD    23348
        0x00005b18:    20000000    ...     DCD    536870912
        0x00005b1c:    0000066c    l...    DCD    1644
        0x00005b20:    00000754    T...    DCD    1876
        0x00005b24:    00005b5c    \[..    DCD    23388
        0x00005b28:    2000066c    l..     DCD    536872556
        0x00005b2c:    00000a84    ....    DCD    2692
        0x00005b30:    00004b18    .K..    DCD    19224
    Region$$Table$$Limit

** Section #2 'RW_IRAM' (SHT_PROGBITS) [SHF_ALLOC + SHF_WRITE]
    Size   : 40 bytes (alignment 1024)
    Address: 0x20000000


** Section #3 'RW_IRAM' (SHT_NOBITS) [SHF_ALLOC + SHF_WRITE]
    Size   : 2692 bytes (alignment 8)
    Address: 0x2000066c


** Section #4 '.debug_abbrev' (SHT_PROGBITS)
    Size   : 1476 bytes


** Section #5 '.debug_frame' (SHT_PROGBITS)
    Size   : 9672 bytes


** Section #6 '.debug_info' (SHT_PROGBITS)
    Size   : 86672 bytes


** Section #7 '.debug_line' (SHT_PROGBITS)
    Size   : 36168 bytes


** Section #8 '.debug_loc' (SHT_PROGBITS)
    Size   : 11292 bytes


** Section #9 '.debug_macinfo' (SHT_PROGBITS)
    Size   : 10696 bytes


** Section #10 '.debug_pubnames' (SHT_PROGBITS)
    Size   : 11906 bytes


** Section #11 '.symtab' (SHT_SYMTAB)
    Size   : 17408 bytes (alignment 4)
    String table #12 '.strtab'
    Last local symbol no. 730


** Section #12 '.strtab' (SHT_STRTAB)
    Size   : 14224 bytes


** Section #13 '.note' (SHT_NOTE)
    Size   : 28 bytes (alignment 4)


** Section #14 '.comment' (SHT_PROGBITS)
    Size   : 6824 bytes


** Section #15 '.shstrtab' (SHT_STRTAB)
    Size   : 152 bytes


